ARM GAS  C:\Users\stijn\AppData\Local\Temp\cc6b5yFd.s 			page 1


   1              		.syntax unified
   2              		.cpu cortex-m4
   3              		.eabi_attribute 27, 1
   4              		.fpu fpv4-sp-d16
   5              		.eabi_attribute 20, 1
   6              		.eabi_attribute 21, 1
   7              		.eabi_attribute 23, 3
   8              		.eabi_attribute 24, 1
   9              		.eabi_attribute 25, 1
  10              		.eabi_attribute 26, 1
  11              		.eabi_attribute 30, 6
  12              		.eabi_attribute 34, 1
  13              		.eabi_attribute 18, 4
  14              		.thumb
  15              		.syntax unified
  16              		.file	"Si7021.c"
  17              		.text
  18              	.Ltext0:
  19              		.cfi_sections	.debug_frame
  20              		.section	.rodata
  21              		.align	2
  22              	.LC0:
  23 0000 47656E65 		.ascii	"Generated_Source\\PSoC6\\pdl\\drivers/peripheral/dm"
  23      72617465 
  23      645F536F 
  23      75726365 
  23      5C50536F 
  24 0030 612F6379 		.ascii	"a/cy_dma.h\000"
  24      5F646D61 
  24      2E6800
  25              		.section	.text.Cy_DMA_Channel_SetDescriptor,"ax",%progbits
  26              		.align	2
  27              		.thumb
  28              		.thumb_func
  29              		.type	Cy_DMA_Channel_SetDescriptor, %function
  30              	Cy_DMA_Channel_SetDescriptor:
  31              	.LFB170:
  32              		.file 1 "Generated_Source\\PSoC6\\pdl\\drivers/peripheral/dma/cy_dma.h"
   1:Generated_Source\PSoC6\pdl\drivers/peripheral/dma/cy_dma.h **** /***************************************************************************//**
   2:Generated_Source\PSoC6\pdl\drivers/peripheral/dma/cy_dma.h **** * \file cy_dma.h
   3:Generated_Source\PSoC6\pdl\drivers/peripheral/dma/cy_dma.h **** * \version 2.10
   4:Generated_Source\PSoC6\pdl\drivers/peripheral/dma/cy_dma.h **** *
   5:Generated_Source\PSoC6\pdl\drivers/peripheral/dma/cy_dma.h **** * \brief
   6:Generated_Source\PSoC6\pdl\drivers/peripheral/dma/cy_dma.h **** * The header file of the DMA driver.
   7:Generated_Source\PSoC6\pdl\drivers/peripheral/dma/cy_dma.h **** *
   8:Generated_Source\PSoC6\pdl\drivers/peripheral/dma/cy_dma.h **** ********************************************************************************
   9:Generated_Source\PSoC6\pdl\drivers/peripheral/dma/cy_dma.h **** * \copyright
  10:Generated_Source\PSoC6\pdl\drivers/peripheral/dma/cy_dma.h **** * Copyright 2016-2018, Cypress Semiconductor Corporation. All rights reserved.
  11:Generated_Source\PSoC6\pdl\drivers/peripheral/dma/cy_dma.h **** * You may use this file only in accordance with the license, terms, conditions,
  12:Generated_Source\PSoC6\pdl\drivers/peripheral/dma/cy_dma.h **** * disclaimers, and limitations in the end user license agreement accompanying
  13:Generated_Source\PSoC6\pdl\drivers/peripheral/dma/cy_dma.h **** * the software package with which this file was provided.
  14:Generated_Source\PSoC6\pdl\drivers/peripheral/dma/cy_dma.h **** *******************************************************************************/
  15:Generated_Source\PSoC6\pdl\drivers/peripheral/dma/cy_dma.h **** 
  16:Generated_Source\PSoC6\pdl\drivers/peripheral/dma/cy_dma.h **** /**
  17:Generated_Source\PSoC6\pdl\drivers/peripheral/dma/cy_dma.h **** * \addtogroup group_dma
  18:Generated_Source\PSoC6\pdl\drivers/peripheral/dma/cy_dma.h **** * \{
  19:Generated_Source\PSoC6\pdl\drivers/peripheral/dma/cy_dma.h **** * Configures a DMA channel and its descriptor(s).
ARM GAS  C:\Users\stijn\AppData\Local\Temp\cc6b5yFd.s 			page 2


  20:Generated_Source\PSoC6\pdl\drivers/peripheral/dma/cy_dma.h **** *
  21:Generated_Source\PSoC6\pdl\drivers/peripheral/dma/cy_dma.h **** * The functions and other declarations used in this driver are in cy_dma.h. 
  22:Generated_Source\PSoC6\pdl\drivers/peripheral/dma/cy_dma.h **** * You can include cy_pdl.h (ModusToolbox only) to get access to all functions 
  23:Generated_Source\PSoC6\pdl\drivers/peripheral/dma/cy_dma.h **** * and declarations in the PDL.
  24:Generated_Source\PSoC6\pdl\drivers/peripheral/dma/cy_dma.h **** *
  25:Generated_Source\PSoC6\pdl\drivers/peripheral/dma/cy_dma.h **** * The DMA channel can be used in any project to transfer data
  26:Generated_Source\PSoC6\pdl\drivers/peripheral/dma/cy_dma.h **** * without CPU intervention basing on a hardware trigger signal from another component.
  27:Generated_Source\PSoC6\pdl\drivers/peripheral/dma/cy_dma.h **** *
  28:Generated_Source\PSoC6\pdl\drivers/peripheral/dma/cy_dma.h **** * A device may support more than one DMA hardware block. Each block has a set of 
  29:Generated_Source\PSoC6\pdl\drivers/peripheral/dma/cy_dma.h **** * registers, a base hardware address, and supports multiple channels. 
  30:Generated_Source\PSoC6\pdl\drivers/peripheral/dma/cy_dma.h **** * Many API functions for the DMA driver require a base hardware address and  
  31:Generated_Source\PSoC6\pdl\drivers/peripheral/dma/cy_dma.h **** * channel number. Ensure that you use the correct hardware address for the DMA block in use.
  32:Generated_Source\PSoC6\pdl\drivers/peripheral/dma/cy_dma.h **** * 
  33:Generated_Source\PSoC6\pdl\drivers/peripheral/dma/cy_dma.h **** * Features:
  34:Generated_Source\PSoC6\pdl\drivers/peripheral/dma/cy_dma.h **** * * Multiple DW blocks (device specific)
  35:Generated_Source\PSoC6\pdl\drivers/peripheral/dma/cy_dma.h **** * * Multiple channels per each DW block (device specific)
  36:Generated_Source\PSoC6\pdl\drivers/peripheral/dma/cy_dma.h **** * * Four priority levels for each channel
  37:Generated_Source\PSoC6\pdl\drivers/peripheral/dma/cy_dma.h **** * * Byte, half-word (2-byte), and word (4-byte) transfers
  38:Generated_Source\PSoC6\pdl\drivers/peripheral/dma/cy_dma.h **** * * Configurable source and destination addresses
  39:Generated_Source\PSoC6\pdl\drivers/peripheral/dma/cy_dma.h **** * * CRC calculation support (only for CPUSS_ver2)
  40:Generated_Source\PSoC6\pdl\drivers/peripheral/dma/cy_dma.h **** *
  41:Generated_Source\PSoC6\pdl\drivers/peripheral/dma/cy_dma.h **** * \section group_dma_configuration Configuration Considerations
  42:Generated_Source\PSoC6\pdl\drivers/peripheral/dma/cy_dma.h **** *
  43:Generated_Source\PSoC6\pdl\drivers/peripheral/dma/cy_dma.h **** * To set up a DMA driver, initialize a descriptor,
  44:Generated_Source\PSoC6\pdl\drivers/peripheral/dma/cy_dma.h **** * initialize and enable a channel, and enable the DMA block.
  45:Generated_Source\PSoC6\pdl\drivers/peripheral/dma/cy_dma.h **** * 
  46:Generated_Source\PSoC6\pdl\drivers/peripheral/dma/cy_dma.h **** * To set up a descriptor, provide the configuration parameters for the 
  47:Generated_Source\PSoC6\pdl\drivers/peripheral/dma/cy_dma.h **** * descriptor in the \ref cy_stc_dma_descriptor_config_t structure. Then call the 
  48:Generated_Source\PSoC6\pdl\drivers/peripheral/dma/cy_dma.h **** * \ref Cy_DMA_Descriptor_Init function to initialize the descriptor in SRAM. You can 
  49:Generated_Source\PSoC6\pdl\drivers/peripheral/dma/cy_dma.h **** * modify the source and destination addresses dynamically by calling 
  50:Generated_Source\PSoC6\pdl\drivers/peripheral/dma/cy_dma.h **** * \ref Cy_DMA_Descriptor_SetSrcAddress and \ref Cy_DMA_Descriptor_SetDstAddress.
  51:Generated_Source\PSoC6\pdl\drivers/peripheral/dma/cy_dma.h **** * 
  52:Generated_Source\PSoC6\pdl\drivers/peripheral/dma/cy_dma.h **** * To set up a DMA channel, provide a filled \ref cy_stc_dma_channel_config_t 
  53:Generated_Source\PSoC6\pdl\drivers/peripheral/dma/cy_dma.h **** * structure. Call the \ref Cy_DMA_Channel_Init function, specifying the channel
  54:Generated_Source\PSoC6\pdl\drivers/peripheral/dma/cy_dma.h **** * number. Use \ref Cy_DMA_Channel_Enable to enable the configured DMA channel.
  55:Generated_Source\PSoC6\pdl\drivers/peripheral/dma/cy_dma.h **** *
  56:Generated_Source\PSoC6\pdl\drivers/peripheral/dma/cy_dma.h **** * Call \ref Cy_DMA_Channel_Enable for each DMA channel in use.
  57:Generated_Source\PSoC6\pdl\drivers/peripheral/dma/cy_dma.h **** *
  58:Generated_Source\PSoC6\pdl\drivers/peripheral/dma/cy_dma.h **** * When configured, another peripheral typically triggers the DMA. The trigger is
  59:Generated_Source\PSoC6\pdl\drivers/peripheral/dma/cy_dma.h **** * connected to the DMA using the trigger multiplexer. The trigger multiplexer
  60:Generated_Source\PSoC6\pdl\drivers/peripheral/dma/cy_dma.h **** * driver has a software trigger you can use in firmware to trigger the DMA. See the
  61:Generated_Source\PSoC6\pdl\drivers/peripheral/dma/cy_dma.h **** * <a href="group__group__trigmux.html">Trigger Multiplexer</a> documentation.
  62:Generated_Source\PSoC6\pdl\drivers/peripheral/dma/cy_dma.h **** *
  63:Generated_Source\PSoC6\pdl\drivers/peripheral/dma/cy_dma.h **** * The following is a simplified structure of the DMA driver API interdependencies
  64:Generated_Source\PSoC6\pdl\drivers/peripheral/dma/cy_dma.h **** * in a typical user application:
  65:Generated_Source\PSoC6\pdl\drivers/peripheral/dma/cy_dma.h **** * \image html dma.png
  66:Generated_Source\PSoC6\pdl\drivers/peripheral/dma/cy_dma.h **** *
  67:Generated_Source\PSoC6\pdl\drivers/peripheral/dma/cy_dma.h **** * <B>NOTE:</B> Even if a DMA channel is enabled, it is not operational until 
  68:Generated_Source\PSoC6\pdl\drivers/peripheral/dma/cy_dma.h **** * the DMA block is enabled using function \ref Cy_DMA_Enable.\n
  69:Generated_Source\PSoC6\pdl\drivers/peripheral/dma/cy_dma.h **** * <B>NOTE:</B> If the DMA descriptor is configured to generate an interrupt, 
  70:Generated_Source\PSoC6\pdl\drivers/peripheral/dma/cy_dma.h **** * the interrupt must be enabled using the \ref Cy_DMA_Channel_SetInterruptMask 
  71:Generated_Source\PSoC6\pdl\drivers/peripheral/dma/cy_dma.h **** * function for each DMA channel.
  72:Generated_Source\PSoC6\pdl\drivers/peripheral/dma/cy_dma.h **** *
  73:Generated_Source\PSoC6\pdl\drivers/peripheral/dma/cy_dma.h **** * For example:
  74:Generated_Source\PSoC6\pdl\drivers/peripheral/dma/cy_dma.h **** * \snippet dma\2.10\snippet\main.c snippet_Cy_DMA_Enable
  75:Generated_Source\PSoC6\pdl\drivers/peripheral/dma/cy_dma.h **** * 
  76:Generated_Source\PSoC6\pdl\drivers/peripheral/dma/cy_dma.h **** * \section group_dma_more_information More Information.
ARM GAS  C:\Users\stijn\AppData\Local\Temp\cc6b5yFd.s 			page 3


  77:Generated_Source\PSoC6\pdl\drivers/peripheral/dma/cy_dma.h **** * See: the DMA chapter of the device technical reference manual (TRM);
  78:Generated_Source\PSoC6\pdl\drivers/peripheral/dma/cy_dma.h **** *      the DMA Component datasheet;
  79:Generated_Source\PSoC6\pdl\drivers/peripheral/dma/cy_dma.h **** *      CE219940 - PSoC 6 MCU Multiple DMA Concatenation.
  80:Generated_Source\PSoC6\pdl\drivers/peripheral/dma/cy_dma.h **** *
  81:Generated_Source\PSoC6\pdl\drivers/peripheral/dma/cy_dma.h **** * \section group_dma_MISRA MISRA-C Compliance
  82:Generated_Source\PSoC6\pdl\drivers/peripheral/dma/cy_dma.h **** * The DMA driver has the following specific deviations:
  83:Generated_Source\PSoC6\pdl\drivers/peripheral/dma/cy_dma.h **** *
  84:Generated_Source\PSoC6\pdl\drivers/peripheral/dma/cy_dma.h **** * <table class="doxtable">
  85:Generated_Source\PSoC6\pdl\drivers/peripheral/dma/cy_dma.h **** *   <tr>
  86:Generated_Source\PSoC6\pdl\drivers/peripheral/dma/cy_dma.h **** *     <th>MISRA Rule</th>
  87:Generated_Source\PSoC6\pdl\drivers/peripheral/dma/cy_dma.h **** *     <th>Rule Class (Required/Advisory)</th>
  88:Generated_Source\PSoC6\pdl\drivers/peripheral/dma/cy_dma.h **** *     <th>Rule Description</th>
  89:Generated_Source\PSoC6\pdl\drivers/peripheral/dma/cy_dma.h **** *     <th>Description of Deviation(s)</th>
  90:Generated_Source\PSoC6\pdl\drivers/peripheral/dma/cy_dma.h **** *   </tr>
  91:Generated_Source\PSoC6\pdl\drivers/peripheral/dma/cy_dma.h **** *   <tr>
  92:Generated_Source\PSoC6\pdl\drivers/peripheral/dma/cy_dma.h **** *     <td>10.3</td>
  93:Generated_Source\PSoC6\pdl\drivers/peripheral/dma/cy_dma.h **** *     <td>R</td>
  94:Generated_Source\PSoC6\pdl\drivers/peripheral/dma/cy_dma.h **** *     <td>A composite expression of the "essentially unsigned" type is being
  95:Generated_Source\PSoC6\pdl\drivers/peripheral/dma/cy_dma.h **** *         cast to a different type category.</td>
  96:Generated_Source\PSoC6\pdl\drivers/peripheral/dma/cy_dma.h **** *     <td>The value got from the bitfield physically cannot exceed the enumeration
  97:Generated_Source\PSoC6\pdl\drivers/peripheral/dma/cy_dma.h **** *         that describes this bitfield. So, the code is safe by design.</td>
  98:Generated_Source\PSoC6\pdl\drivers/peripheral/dma/cy_dma.h **** *   </tr>
  99:Generated_Source\PSoC6\pdl\drivers/peripheral/dma/cy_dma.h **** *   <tr>
 100:Generated_Source\PSoC6\pdl\drivers/peripheral/dma/cy_dma.h **** *     <td>11.4</td>
 101:Generated_Source\PSoC6\pdl\drivers/peripheral/dma/cy_dma.h **** *     <td>A</td>
 102:Generated_Source\PSoC6\pdl\drivers/peripheral/dma/cy_dma.h **** *     <td>A cast should not be performed between a pointer to object type and
 103:Generated_Source\PSoC6\pdl\drivers/peripheral/dma/cy_dma.h **** *         a different pointer to object type.</td>
 104:Generated_Source\PSoC6\pdl\drivers/peripheral/dma/cy_dma.h **** *     <td>This piece of code is written for DW_V2_Type only and it will be never
 105:Generated_Source\PSoC6\pdl\drivers/peripheral/dma/cy_dma.h **** *         executed for DW_V1_Type (which is a default build option for DW_Type).</td>
 106:Generated_Source\PSoC6\pdl\drivers/peripheral/dma/cy_dma.h **** *   </tr>
 107:Generated_Source\PSoC6\pdl\drivers/peripheral/dma/cy_dma.h **** * </table>
 108:Generated_Source\PSoC6\pdl\drivers/peripheral/dma/cy_dma.h **** *
 109:Generated_Source\PSoC6\pdl\drivers/peripheral/dma/cy_dma.h **** * \section group_dma_changelog Changelog
 110:Generated_Source\PSoC6\pdl\drivers/peripheral/dma/cy_dma.h **** *
 111:Generated_Source\PSoC6\pdl\drivers/peripheral/dma/cy_dma.h **** * <table class="doxtable">
 112:Generated_Source\PSoC6\pdl\drivers/peripheral/dma/cy_dma.h **** *   <tr><th>Version</th><th>Changes</th><th>Reason for Change</th></tr>
 113:Generated_Source\PSoC6\pdl\drivers/peripheral/dma/cy_dma.h **** *   <tr>
 114:Generated_Source\PSoC6\pdl\drivers/peripheral/dma/cy_dma.h **** *     <td rowspan="3">2.10</td>
 115:Generated_Source\PSoC6\pdl\drivers/peripheral/dma/cy_dma.h **** *     <td>Flattened the organization of the driver source code into the single source directory and
 116:Generated_Source\PSoC6\pdl\drivers/peripheral/dma/cy_dma.h **** *     <td>Driver library directory-structure simplification.</td>
 117:Generated_Source\PSoC6\pdl\drivers/peripheral/dma/cy_dma.h **** *   </tr>
 118:Generated_Source\PSoC6\pdl\drivers/peripheral/dma/cy_dma.h **** *   <tr>
 119:Generated_Source\PSoC6\pdl\drivers/peripheral/dma/cy_dma.h **** *     <td>Added CRC mode and the CRC descriptor support. \n Added the \ref Cy_DMA_Crc_Init function
 120:Generated_Source\PSoC6\pdl\drivers/peripheral/dma/cy_dma.h **** *     <td>New devices support.</td>
 121:Generated_Source\PSoC6\pdl\drivers/peripheral/dma/cy_dma.h **** *   </tr>
 122:Generated_Source\PSoC6\pdl\drivers/peripheral/dma/cy_dma.h **** *   <tr>
 123:Generated_Source\PSoC6\pdl\drivers/peripheral/dma/cy_dma.h **** *     <td>Added register access layer. Use register access macros instead
 124:Generated_Source\PSoC6\pdl\drivers/peripheral/dma/cy_dma.h **** *         of direct register access using dereferenced pointers.</td>
 125:Generated_Source\PSoC6\pdl\drivers/peripheral/dma/cy_dma.h **** *     <td>Makes register access device-independent, so that the PDL does 
 126:Generated_Source\PSoC6\pdl\drivers/peripheral/dma/cy_dma.h **** *         not need to be recompiled for each supported part number.</td>
 127:Generated_Source\PSoC6\pdl\drivers/peripheral/dma/cy_dma.h **** *   </tr>
 128:Generated_Source\PSoC6\pdl\drivers/peripheral/dma/cy_dma.h **** *   <tr>
 129:Generated_Source\PSoC6\pdl\drivers/peripheral/dma/cy_dma.h **** *     <td>2.0.1</td>
 130:Generated_Source\PSoC6\pdl\drivers/peripheral/dma/cy_dma.h **** *     <td>Changed CY_DMA_BWC macro values from Boolean to numeric</td>
 131:Generated_Source\PSoC6\pdl\drivers/peripheral/dma/cy_dma.h **** *     <td>Improvements made based on usability feedback</td>
 132:Generated_Source\PSoC6\pdl\drivers/peripheral/dma/cy_dma.h **** *   </tr>
 133:Generated_Source\PSoC6\pdl\drivers/peripheral/dma/cy_dma.h **** *   <tr>
ARM GAS  C:\Users\stijn\AppData\Local\Temp\cc6b5yFd.s 			page 4


 134:Generated_Source\PSoC6\pdl\drivers/peripheral/dma/cy_dma.h **** *     <td>2.0</td>
 135:Generated_Source\PSoC6\pdl\drivers/peripheral/dma/cy_dma.h **** *     <td> * All the API is refactored to be consistent within itself and with the
 136:Generated_Source\PSoC6\pdl\drivers/peripheral/dma/cy_dma.h **** *            rest of the PDL content.
 137:Generated_Source\PSoC6\pdl\drivers/peripheral/dma/cy_dma.h **** *          * The descriptor API is updated as follows:
 138:Generated_Source\PSoC6\pdl\drivers/peripheral/dma/cy_dma.h **** *            The \ref Cy_DMA_Descriptor_Init function sets a full bunch of descriptor
 139:Generated_Source\PSoC6\pdl\drivers/peripheral/dma/cy_dma.h **** *            settings, and the rest of the descriptor API is a get/set interface
 140:Generated_Source\PSoC6\pdl\drivers/peripheral/dma/cy_dma.h **** *            to each of the descriptor settings.
 141:Generated_Source\PSoC6\pdl\drivers/peripheral/dma/cy_dma.h **** *          * There is a group of macros to support the backward compatibility with most 
 142:Generated_Source\PSoC6\pdl\drivers/peripheral/dma/cy_dma.h **** *            of the driver version 1.0 API. But, you should use
 143:Generated_Source\PSoC6\pdl\drivers/peripheral/dma/cy_dma.h **** *            the new v2.0 interface in new designs (do not just copy-paste from old
 144:Generated_Source\PSoC6\pdl\drivers/peripheral/dma/cy_dma.h **** *            projects). To enable the backward compatibility support, the CY_DMA_BWC 
 145:Generated_Source\PSoC6\pdl\drivers/peripheral/dma/cy_dma.h **** *            definition should be changed to "1".</td>
 146:Generated_Source\PSoC6\pdl\drivers/peripheral/dma/cy_dma.h **** *     <td></td>
 147:Generated_Source\PSoC6\pdl\drivers/peripheral/dma/cy_dma.h **** *   </tr>
 148:Generated_Source\PSoC6\pdl\drivers/peripheral/dma/cy_dma.h **** *   <tr>
 149:Generated_Source\PSoC6\pdl\drivers/peripheral/dma/cy_dma.h **** *     <td>1.0</td>
 150:Generated_Source\PSoC6\pdl\drivers/peripheral/dma/cy_dma.h **** *     <td>Initial version</td>
 151:Generated_Source\PSoC6\pdl\drivers/peripheral/dma/cy_dma.h **** *     <td></td>
 152:Generated_Source\PSoC6\pdl\drivers/peripheral/dma/cy_dma.h **** *   </tr>
 153:Generated_Source\PSoC6\pdl\drivers/peripheral/dma/cy_dma.h **** * </table>
 154:Generated_Source\PSoC6\pdl\drivers/peripheral/dma/cy_dma.h **** *
 155:Generated_Source\PSoC6\pdl\drivers/peripheral/dma/cy_dma.h **** 
 156:Generated_Source\PSoC6\pdl\drivers/peripheral/dma/cy_dma.h **** * \defgroup group_dma_macros Macros
 157:Generated_Source\PSoC6\pdl\drivers/peripheral/dma/cy_dma.h **** * \defgroup group_dma_functions Functions
 158:Generated_Source\PSoC6\pdl\drivers/peripheral/dma/cy_dma.h **** * \{
 159:Generated_Source\PSoC6\pdl\drivers/peripheral/dma/cy_dma.h **** * \defgroup group_dma_block_functions Block Functions
 160:Generated_Source\PSoC6\pdl\drivers/peripheral/dma/cy_dma.h **** * \defgroup group_dma_channel_functions Channel Functions
 161:Generated_Source\PSoC6\pdl\drivers/peripheral/dma/cy_dma.h **** * \defgroup group_dma_descriptor_functions Descriptor Functions
 162:Generated_Source\PSoC6\pdl\drivers/peripheral/dma/cy_dma.h **** * \}
 163:Generated_Source\PSoC6\pdl\drivers/peripheral/dma/cy_dma.h **** * \defgroup group_dma_data_structures Data Structures
 164:Generated_Source\PSoC6\pdl\drivers/peripheral/dma/cy_dma.h **** * \defgroup group_dma_enums Enumerated Types
 165:Generated_Source\PSoC6\pdl\drivers/peripheral/dma/cy_dma.h **** */
 166:Generated_Source\PSoC6\pdl\drivers/peripheral/dma/cy_dma.h **** 
 167:Generated_Source\PSoC6\pdl\drivers/peripheral/dma/cy_dma.h **** #if !defined(CY_DMA_H)
 168:Generated_Source\PSoC6\pdl\drivers/peripheral/dma/cy_dma.h **** #define CY_DMA_H
 169:Generated_Source\PSoC6\pdl\drivers/peripheral/dma/cy_dma.h **** 
 170:Generated_Source\PSoC6\pdl\drivers/peripheral/dma/cy_dma.h **** #include "cy_device.h"
 171:Generated_Source\PSoC6\pdl\drivers/peripheral/dma/cy_dma.h **** #include "cy_device_headers.h"
 172:Generated_Source\PSoC6\pdl\drivers/peripheral/dma/cy_dma.h **** #include "cy_syslib.h"
 173:Generated_Source\PSoC6\pdl\drivers/peripheral/dma/cy_dma.h **** #include <stdint.h>
 174:Generated_Source\PSoC6\pdl\drivers/peripheral/dma/cy_dma.h **** #include <stdbool.h>
 175:Generated_Source\PSoC6\pdl\drivers/peripheral/dma/cy_dma.h **** #include <stddef.h>
 176:Generated_Source\PSoC6\pdl\drivers/peripheral/dma/cy_dma.h **** 
 177:Generated_Source\PSoC6\pdl\drivers/peripheral/dma/cy_dma.h **** #ifdef CY_IP_M4CPUSS_DMA
 178:Generated_Source\PSoC6\pdl\drivers/peripheral/dma/cy_dma.h **** 
 179:Generated_Source\PSoC6\pdl\drivers/peripheral/dma/cy_dma.h **** #if defined(__cplusplus)
 180:Generated_Source\PSoC6\pdl\drivers/peripheral/dma/cy_dma.h **** extern "C" {
 181:Generated_Source\PSoC6\pdl\drivers/peripheral/dma/cy_dma.h **** #endif
 182:Generated_Source\PSoC6\pdl\drivers/peripheral/dma/cy_dma.h **** 
 183:Generated_Source\PSoC6\pdl\drivers/peripheral/dma/cy_dma.h **** /******************************************************************************
 184:Generated_Source\PSoC6\pdl\drivers/peripheral/dma/cy_dma.h ****  * Macro definitions                                                          *
 185:Generated_Source\PSoC6\pdl\drivers/peripheral/dma/cy_dma.h ****  ******************************************************************************/
 186:Generated_Source\PSoC6\pdl\drivers/peripheral/dma/cy_dma.h **** 
 187:Generated_Source\PSoC6\pdl\drivers/peripheral/dma/cy_dma.h **** /**
 188:Generated_Source\PSoC6\pdl\drivers/peripheral/dma/cy_dma.h **** * \addtogroup group_dma_macros
 189:Generated_Source\PSoC6\pdl\drivers/peripheral/dma/cy_dma.h **** * \{
 190:Generated_Source\PSoC6\pdl\drivers/peripheral/dma/cy_dma.h **** */
ARM GAS  C:\Users\stijn\AppData\Local\Temp\cc6b5yFd.s 			page 5


 191:Generated_Source\PSoC6\pdl\drivers/peripheral/dma/cy_dma.h **** 
 192:Generated_Source\PSoC6\pdl\drivers/peripheral/dma/cy_dma.h **** /** The driver major version */
 193:Generated_Source\PSoC6\pdl\drivers/peripheral/dma/cy_dma.h **** #define CY_DMA_DRV_VERSION_MAJOR       2
 194:Generated_Source\PSoC6\pdl\drivers/peripheral/dma/cy_dma.h **** 
 195:Generated_Source\PSoC6\pdl\drivers/peripheral/dma/cy_dma.h **** /** The driver minor version */
 196:Generated_Source\PSoC6\pdl\drivers/peripheral/dma/cy_dma.h **** #define CY_DMA_DRV_VERSION_MINOR       10
 197:Generated_Source\PSoC6\pdl\drivers/peripheral/dma/cy_dma.h **** 
 198:Generated_Source\PSoC6\pdl\drivers/peripheral/dma/cy_dma.h **** /** The DMA driver identifier */
 199:Generated_Source\PSoC6\pdl\drivers/peripheral/dma/cy_dma.h **** #define CY_DMA_ID                      (CY_PDL_DRV_ID(0x13U))
 200:Generated_Source\PSoC6\pdl\drivers/peripheral/dma/cy_dma.h ****  
 201:Generated_Source\PSoC6\pdl\drivers/peripheral/dma/cy_dma.h **** /** The DMA channel interrupt mask */
 202:Generated_Source\PSoC6\pdl\drivers/peripheral/dma/cy_dma.h **** #define CY_DMA_INTR_MASK               (0x01UL)
 203:Generated_Source\PSoC6\pdl\drivers/peripheral/dma/cy_dma.h **** 
 204:Generated_Source\PSoC6\pdl\drivers/peripheral/dma/cy_dma.h **** /** The minimum X/Y Count API parameters */
 205:Generated_Source\PSoC6\pdl\drivers/peripheral/dma/cy_dma.h **** #define CY_DMA_LOOP_COUNT_MIN          (1UL)
 206:Generated_Source\PSoC6\pdl\drivers/peripheral/dma/cy_dma.h **** /** The maximum X/Y Count API parameters */
 207:Generated_Source\PSoC6\pdl\drivers/peripheral/dma/cy_dma.h **** #define CY_DMA_LOOP_COUNT_MAX          (256UL)
 208:Generated_Source\PSoC6\pdl\drivers/peripheral/dma/cy_dma.h **** 
 209:Generated_Source\PSoC6\pdl\drivers/peripheral/dma/cy_dma.h **** /** The minimum X/Y Increment API parameters */
 210:Generated_Source\PSoC6\pdl\drivers/peripheral/dma/cy_dma.h **** #define CY_DMA_LOOP_INCREMENT_MIN      (-2048L)
 211:Generated_Source\PSoC6\pdl\drivers/peripheral/dma/cy_dma.h **** /** The maximum X/Y Increment API parameters */
 212:Generated_Source\PSoC6\pdl\drivers/peripheral/dma/cy_dma.h **** #define CY_DMA_LOOP_INCREMENT_MAX      (2047L)
 213:Generated_Source\PSoC6\pdl\drivers/peripheral/dma/cy_dma.h **** 
 214:Generated_Source\PSoC6\pdl\drivers/peripheral/dma/cy_dma.h **** /** The backward compatibility flag. Enables a group of macros which provide 
 215:Generated_Source\PSoC6\pdl\drivers/peripheral/dma/cy_dma.h **** * the backward compatibility with most of the DMA driver version 1.0 interface. */
 216:Generated_Source\PSoC6\pdl\drivers/peripheral/dma/cy_dma.h **** #ifndef CY_DMA_BWC
 217:Generated_Source\PSoC6\pdl\drivers/peripheral/dma/cy_dma.h ****     #define CY_DMA_BWC                 (0U) /* Disabled by default */
 218:Generated_Source\PSoC6\pdl\drivers/peripheral/dma/cy_dma.h **** #endif
 219:Generated_Source\PSoC6\pdl\drivers/peripheral/dma/cy_dma.h **** 
 220:Generated_Source\PSoC6\pdl\drivers/peripheral/dma/cy_dma.h **** /** \} group_dma_macros */
 221:Generated_Source\PSoC6\pdl\drivers/peripheral/dma/cy_dma.h **** 
 222:Generated_Source\PSoC6\pdl\drivers/peripheral/dma/cy_dma.h **** 
 223:Generated_Source\PSoC6\pdl\drivers/peripheral/dma/cy_dma.h **** /**
 224:Generated_Source\PSoC6\pdl\drivers/peripheral/dma/cy_dma.h **** * \addtogroup group_dma_enums
 225:Generated_Source\PSoC6\pdl\drivers/peripheral/dma/cy_dma.h **** * \{
 226:Generated_Source\PSoC6\pdl\drivers/peripheral/dma/cy_dma.h **** */
 227:Generated_Source\PSoC6\pdl\drivers/peripheral/dma/cy_dma.h **** 
 228:Generated_Source\PSoC6\pdl\drivers/peripheral/dma/cy_dma.h **** /** Contains the possible interrupt cause values */
 229:Generated_Source\PSoC6\pdl\drivers/peripheral/dma/cy_dma.h **** typedef enum
 230:Generated_Source\PSoC6\pdl\drivers/peripheral/dma/cy_dma.h **** {
 231:Generated_Source\PSoC6\pdl\drivers/peripheral/dma/cy_dma.h ****     CY_DMA_INTR_CAUSE_NO_INTR            = 0U, /**< No interrupt.                       */
 232:Generated_Source\PSoC6\pdl\drivers/peripheral/dma/cy_dma.h ****     CY_DMA_INTR_CAUSE_COMPLETION         = 1U, /**< Completion.                         */
 233:Generated_Source\PSoC6\pdl\drivers/peripheral/dma/cy_dma.h ****     CY_DMA_INTR_CAUSE_SRC_BUS_ERROR      = 2U, /**< Source bus error.                   */
 234:Generated_Source\PSoC6\pdl\drivers/peripheral/dma/cy_dma.h ****     CY_DMA_INTR_CAUSE_DST_BUS_ERROR      = 3U, /**< Destination bus error.              */
 235:Generated_Source\PSoC6\pdl\drivers/peripheral/dma/cy_dma.h ****     CY_DMA_INTR_CAUSE_SRC_MISAL          = 4U, /**< Source address is not aligned.       */
 236:Generated_Source\PSoC6\pdl\drivers/peripheral/dma/cy_dma.h ****     CY_DMA_INTR_CAUSE_DST_MISAL          = 5U, /**< Destination address is not aligned. */
 237:Generated_Source\PSoC6\pdl\drivers/peripheral/dma/cy_dma.h ****     CY_DMA_INTR_CAUSE_CURR_PTR_NULL      = 6U, /**< Current descriptor pointer is NULL. */
 238:Generated_Source\PSoC6\pdl\drivers/peripheral/dma/cy_dma.h ****     CY_DMA_INTR_CAUSE_ACTIVE_CH_DISABLED = 7U, /**< Active channel is disabled.         */
 239:Generated_Source\PSoC6\pdl\drivers/peripheral/dma/cy_dma.h ****     CY_DMA_INTR_CAUSE_DESCR_BUS_ERROR    = 8U  /**< Descriptor bus error.               */
 240:Generated_Source\PSoC6\pdl\drivers/peripheral/dma/cy_dma.h **** } cy_en_dma_intr_cause_t;
 241:Generated_Source\PSoC6\pdl\drivers/peripheral/dma/cy_dma.h **** 
 242:Generated_Source\PSoC6\pdl\drivers/peripheral/dma/cy_dma.h **** /** Contains the options for the descriptor type */
 243:Generated_Source\PSoC6\pdl\drivers/peripheral/dma/cy_dma.h **** typedef enum
 244:Generated_Source\PSoC6\pdl\drivers/peripheral/dma/cy_dma.h **** {
 245:Generated_Source\PSoC6\pdl\drivers/peripheral/dma/cy_dma.h ****     CY_DMA_SINGLE_TRANSFER = 0UL,          /**< Single transfer. */
 246:Generated_Source\PSoC6\pdl\drivers/peripheral/dma/cy_dma.h ****     CY_DMA_1D_TRANSFER     = 1UL,          /**< 1D transfer.     */
 247:Generated_Source\PSoC6\pdl\drivers/peripheral/dma/cy_dma.h ****     CY_DMA_2D_TRANSFER     = 2UL,          /**< 2D transfer.     */
ARM GAS  C:\Users\stijn\AppData\Local\Temp\cc6b5yFd.s 			page 6


 248:Generated_Source\PSoC6\pdl\drivers/peripheral/dma/cy_dma.h ****     CY_DMA_CRC_TRANSFER    = 3UL,          /**< CRC transfer. Supported by the CPUSS_ver2 only. */
 249:Generated_Source\PSoC6\pdl\drivers/peripheral/dma/cy_dma.h **** } cy_en_dma_descriptor_type_t;
 250:Generated_Source\PSoC6\pdl\drivers/peripheral/dma/cy_dma.h **** 
 251:Generated_Source\PSoC6\pdl\drivers/peripheral/dma/cy_dma.h **** /** Contains the options for the interrupt, trig-in and trig-out type parameters of the descriptor 
 252:Generated_Source\PSoC6\pdl\drivers/peripheral/dma/cy_dma.h **** typedef enum
 253:Generated_Source\PSoC6\pdl\drivers/peripheral/dma/cy_dma.h **** {
 254:Generated_Source\PSoC6\pdl\drivers/peripheral/dma/cy_dma.h ****     CY_DMA_1ELEMENT    = 0UL,              /**< One element transfer.             */
 255:Generated_Source\PSoC6\pdl\drivers/peripheral/dma/cy_dma.h ****     CY_DMA_X_LOOP      = 1UL,              /**< One X loop transfer.              */
 256:Generated_Source\PSoC6\pdl\drivers/peripheral/dma/cy_dma.h ****     CY_DMA_DESCR       = 2UL,              /**< One descriptor transfer.          */
 257:Generated_Source\PSoC6\pdl\drivers/peripheral/dma/cy_dma.h ****     CY_DMA_DESCR_CHAIN = 3UL               /**< Entire descriptor chain transfer. */
 258:Generated_Source\PSoC6\pdl\drivers/peripheral/dma/cy_dma.h **** } cy_en_dma_trigger_type_t;
 259:Generated_Source\PSoC6\pdl\drivers/peripheral/dma/cy_dma.h **** 
 260:Generated_Source\PSoC6\pdl\drivers/peripheral/dma/cy_dma.h **** /** Contains the options for the data size */
 261:Generated_Source\PSoC6\pdl\drivers/peripheral/dma/cy_dma.h **** typedef enum
 262:Generated_Source\PSoC6\pdl\drivers/peripheral/dma/cy_dma.h **** {
 263:Generated_Source\PSoC6\pdl\drivers/peripheral/dma/cy_dma.h ****     CY_DMA_BYTE     = 0UL,                 /**< One byte.               */
 264:Generated_Source\PSoC6\pdl\drivers/peripheral/dma/cy_dma.h ****     CY_DMA_HALFWORD = 1UL,                 /**< Half word (two bytes).  */
 265:Generated_Source\PSoC6\pdl\drivers/peripheral/dma/cy_dma.h ****     CY_DMA_WORD     = 2UL                  /**< Full word (four bytes). */
 266:Generated_Source\PSoC6\pdl\drivers/peripheral/dma/cy_dma.h **** } cy_en_dma_data_size_t;
 267:Generated_Source\PSoC6\pdl\drivers/peripheral/dma/cy_dma.h **** 
 268:Generated_Source\PSoC6\pdl\drivers/peripheral/dma/cy_dma.h **** /** Contains the options for descriptor retriggering */
 269:Generated_Source\PSoC6\pdl\drivers/peripheral/dma/cy_dma.h **** typedef enum
 270:Generated_Source\PSoC6\pdl\drivers/peripheral/dma/cy_dma.h **** {
 271:Generated_Source\PSoC6\pdl\drivers/peripheral/dma/cy_dma.h ****     CY_DMA_RETRIG_IM      = 0UL,           /**< Retrigger immediately.              */
 272:Generated_Source\PSoC6\pdl\drivers/peripheral/dma/cy_dma.h ****     CY_DMA_RETRIG_4CYC    = 1UL,           /**< Retrigger after 4 Clk_Slow cycles.  */
 273:Generated_Source\PSoC6\pdl\drivers/peripheral/dma/cy_dma.h ****     CY_DMA_RETRIG_16CYC   = 2UL,           /**< Retrigger after 16 Clk_Slow cycles. */
 274:Generated_Source\PSoC6\pdl\drivers/peripheral/dma/cy_dma.h ****     CY_DMA_WAIT_FOR_REACT = 3UL            /**< Wait for trigger reactivation.      */
 275:Generated_Source\PSoC6\pdl\drivers/peripheral/dma/cy_dma.h **** } cy_en_dma_retrigger_t;
 276:Generated_Source\PSoC6\pdl\drivers/peripheral/dma/cy_dma.h **** 
 277:Generated_Source\PSoC6\pdl\drivers/peripheral/dma/cy_dma.h **** /** Contains the options for the transfer size */
 278:Generated_Source\PSoC6\pdl\drivers/peripheral/dma/cy_dma.h **** typedef enum
 279:Generated_Source\PSoC6\pdl\drivers/peripheral/dma/cy_dma.h **** {
 280:Generated_Source\PSoC6\pdl\drivers/peripheral/dma/cy_dma.h ****     CY_DMA_TRANSFER_SIZE_DATA = 0UL,       /**< As specified by dataSize. */
 281:Generated_Source\PSoC6\pdl\drivers/peripheral/dma/cy_dma.h ****     CY_DMA_TRANSFER_SIZE_WORD = 1UL,       /**< A full word (four bytes). */
 282:Generated_Source\PSoC6\pdl\drivers/peripheral/dma/cy_dma.h **** } cy_en_dma_transfer_size_t;
 283:Generated_Source\PSoC6\pdl\drivers/peripheral/dma/cy_dma.h **** 
 284:Generated_Source\PSoC6\pdl\drivers/peripheral/dma/cy_dma.h **** /** Contains the options for the state of the channel when the descriptor is completed   */
 285:Generated_Source\PSoC6\pdl\drivers/peripheral/dma/cy_dma.h **** typedef enum
 286:Generated_Source\PSoC6\pdl\drivers/peripheral/dma/cy_dma.h **** {
 287:Generated_Source\PSoC6\pdl\drivers/peripheral/dma/cy_dma.h ****     CY_DMA_CHANNEL_ENABLED  = 0UL,         /**< Channel stays enabled. */
 288:Generated_Source\PSoC6\pdl\drivers/peripheral/dma/cy_dma.h ****     CY_DMA_CHANNEL_DISABLED = 1UL          /**< Channel is disabled.   */
 289:Generated_Source\PSoC6\pdl\drivers/peripheral/dma/cy_dma.h **** } cy_en_dma_channel_state_t;
 290:Generated_Source\PSoC6\pdl\drivers/peripheral/dma/cy_dma.h **** 
 291:Generated_Source\PSoC6\pdl\drivers/peripheral/dma/cy_dma.h **** /** Contains the return values of the DMA driver */
 292:Generated_Source\PSoC6\pdl\drivers/peripheral/dma/cy_dma.h **** typedef enum 
 293:Generated_Source\PSoC6\pdl\drivers/peripheral/dma/cy_dma.h **** {
 294:Generated_Source\PSoC6\pdl\drivers/peripheral/dma/cy_dma.h ****     CY_DMA_SUCCESS   = 0x00UL, /**< Success. */
 295:Generated_Source\PSoC6\pdl\drivers/peripheral/dma/cy_dma.h ****     CY_DMA_BAD_PARAM = CY_DMA_ID | CY_PDL_STATUS_ERROR | 0x01UL /**< The input parameters passed to
 296:Generated_Source\PSoC6\pdl\drivers/peripheral/dma/cy_dma.h **** } cy_en_dma_status_t;
 297:Generated_Source\PSoC6\pdl\drivers/peripheral/dma/cy_dma.h **** 
 298:Generated_Source\PSoC6\pdl\drivers/peripheral/dma/cy_dma.h **** /** \} group_dma_enums */
 299:Generated_Source\PSoC6\pdl\drivers/peripheral/dma/cy_dma.h **** 
 300:Generated_Source\PSoC6\pdl\drivers/peripheral/dma/cy_dma.h **** 
 301:Generated_Source\PSoC6\pdl\drivers/peripheral/dma/cy_dma.h **** /** \cond Internal */
 302:Generated_Source\PSoC6\pdl\drivers/peripheral/dma/cy_dma.h **** 
 303:Generated_Source\PSoC6\pdl\drivers/peripheral/dma/cy_dma.h **** /* Macros for the conditions used by CY_ASSERT calls */
 304:Generated_Source\PSoC6\pdl\drivers/peripheral/dma/cy_dma.h **** #define CY_DMA_IS_LOOP_COUNT_VALID(count)      (((count) >= CY_DMA_LOOP_COUNT_MIN) && ((count) <= C
ARM GAS  C:\Users\stijn\AppData\Local\Temp\cc6b5yFd.s 			page 7


 305:Generated_Source\PSoC6\pdl\drivers/peripheral/dma/cy_dma.h **** #define CY_DMA_IS_LOOP_INCR_VALID(incr)        (((incr) >= CY_DMA_LOOP_INCREMENT_MIN) && ((incr) <=
 306:Generated_Source\PSoC6\pdl\drivers/peripheral/dma/cy_dma.h **** #define CY_DMA_IS_PRIORITY_VALID(prio)         ((prio) <= 3UL)
 307:Generated_Source\PSoC6\pdl\drivers/peripheral/dma/cy_dma.h **** #define CY_DMA_IS_INTR_MASK_VALID(intr)        (0UL == ((intr) & ((uint32_t) ~CY_DMA_INTR_MASK)))
 308:Generated_Source\PSoC6\pdl\drivers/peripheral/dma/cy_dma.h **** 
 309:Generated_Source\PSoC6\pdl\drivers/peripheral/dma/cy_dma.h **** #define CY_DMA_IS_RETRIG_VALID(retrig)         ((CY_DMA_RETRIG_IM      == (retrig)) || \
 310:Generated_Source\PSoC6\pdl\drivers/peripheral/dma/cy_dma.h ****                                                 (CY_DMA_RETRIG_4CYC    == (retrig)) || \
 311:Generated_Source\PSoC6\pdl\drivers/peripheral/dma/cy_dma.h ****                                                 (CY_DMA_RETRIG_16CYC   == (retrig)) || \
 312:Generated_Source\PSoC6\pdl\drivers/peripheral/dma/cy_dma.h ****                                                 (CY_DMA_WAIT_FOR_REACT == (retrig)))
 313:Generated_Source\PSoC6\pdl\drivers/peripheral/dma/cy_dma.h **** 
 314:Generated_Source\PSoC6\pdl\drivers/peripheral/dma/cy_dma.h **** #define CY_DMA_IS_TRIG_TYPE_VALID(trigType)    ((CY_DMA_1ELEMENT    == (trigType)) || \
 315:Generated_Source\PSoC6\pdl\drivers/peripheral/dma/cy_dma.h ****                                                 (CY_DMA_X_LOOP      == (trigType)) || \
 316:Generated_Source\PSoC6\pdl\drivers/peripheral/dma/cy_dma.h ****                                                 (CY_DMA_DESCR       == (trigType)) || \
 317:Generated_Source\PSoC6\pdl\drivers/peripheral/dma/cy_dma.h ****                                                 (CY_DMA_DESCR_CHAIN == (trigType)))
 318:Generated_Source\PSoC6\pdl\drivers/peripheral/dma/cy_dma.h **** 
 319:Generated_Source\PSoC6\pdl\drivers/peripheral/dma/cy_dma.h **** #define CY_DMA_IS_XFER_SIZE_VALID(xferSize)    ((CY_DMA_TRANSFER_SIZE_DATA == (xferSize)) || \
 320:Generated_Source\PSoC6\pdl\drivers/peripheral/dma/cy_dma.h ****                                                 (CY_DMA_TRANSFER_SIZE_WORD == (xferSize)))
 321:Generated_Source\PSoC6\pdl\drivers/peripheral/dma/cy_dma.h **** 
 322:Generated_Source\PSoC6\pdl\drivers/peripheral/dma/cy_dma.h **** #define CY_DMA_IS_CHANNEL_STATE_VALID(state)   ((CY_DMA_CHANNEL_ENABLED  == (state)) || \
 323:Generated_Source\PSoC6\pdl\drivers/peripheral/dma/cy_dma.h ****                                                 (CY_DMA_CHANNEL_DISABLED == (state)))
 324:Generated_Source\PSoC6\pdl\drivers/peripheral/dma/cy_dma.h **** 
 325:Generated_Source\PSoC6\pdl\drivers/peripheral/dma/cy_dma.h **** #define CY_DMA_IS_DATA_SIZE_VALID(dataSize)    ((CY_DMA_BYTE     == (dataSize)) || \
 326:Generated_Source\PSoC6\pdl\drivers/peripheral/dma/cy_dma.h ****                                                 (CY_DMA_HALFWORD == (dataSize)) || \
 327:Generated_Source\PSoC6\pdl\drivers/peripheral/dma/cy_dma.h ****                                                 (CY_DMA_WORD     == (dataSize)))
 328:Generated_Source\PSoC6\pdl\drivers/peripheral/dma/cy_dma.h **** 
 329:Generated_Source\PSoC6\pdl\drivers/peripheral/dma/cy_dma.h **** #define CY_DMA_IS_TYPE_VALID(descrType)        ((CY_DMA_SINGLE_TRANSFER == (descrType)) || \
 330:Generated_Source\PSoC6\pdl\drivers/peripheral/dma/cy_dma.h ****                                                 (CY_DMA_1D_TRANSFER     == (descrType)) || \
 331:Generated_Source\PSoC6\pdl\drivers/peripheral/dma/cy_dma.h ****                                                 (CY_DMA_2D_TRANSFER     == (descrType)) || \
 332:Generated_Source\PSoC6\pdl\drivers/peripheral/dma/cy_dma.h ****                                                 (CY_DMA_CRC_TRANSFER    == (descrType)))
 333:Generated_Source\PSoC6\pdl\drivers/peripheral/dma/cy_dma.h **** 
 334:Generated_Source\PSoC6\pdl\drivers/peripheral/dma/cy_dma.h **** #define CY_DMA_IS_CH_NR_VALID(chNr)            ((chNr) < CY_DW_CH_NR)
 335:Generated_Source\PSoC6\pdl\drivers/peripheral/dma/cy_dma.h **** 
 336:Generated_Source\PSoC6\pdl\drivers/peripheral/dma/cy_dma.h **** 
 337:Generated_Source\PSoC6\pdl\drivers/peripheral/dma/cy_dma.h **** /* The descriptor structure bit field definitions */
 338:Generated_Source\PSoC6\pdl\drivers/peripheral/dma/cy_dma.h **** #define CY_DMA_CTL_RETRIG_Pos      (0UL)
 339:Generated_Source\PSoC6\pdl\drivers/peripheral/dma/cy_dma.h **** #define CY_DMA_CTL_RETRIG_Msk      ((uint32_t)0x3UL << CY_DMA_CTL_RETRIG_Pos)
 340:Generated_Source\PSoC6\pdl\drivers/peripheral/dma/cy_dma.h **** #define CY_DMA_CTL_INTR_TYPE_Pos   (2UL)
 341:Generated_Source\PSoC6\pdl\drivers/peripheral/dma/cy_dma.h **** #define CY_DMA_CTL_INTR_TYPE_Msk   ((uint32_t)0x3UL << CY_DMA_CTL_INTR_TYPE_Pos)
 342:Generated_Source\PSoC6\pdl\drivers/peripheral/dma/cy_dma.h **** #define CY_DMA_CTL_TR_OUT_TYPE_Pos (4UL)
 343:Generated_Source\PSoC6\pdl\drivers/peripheral/dma/cy_dma.h **** #define CY_DMA_CTL_TR_OUT_TYPE_Msk ((uint32_t)0x3UL << CY_DMA_CTL_TR_OUT_TYPE_Pos)
 344:Generated_Source\PSoC6\pdl\drivers/peripheral/dma/cy_dma.h **** #define CY_DMA_CTL_TR_IN_TYPE_Pos  (6UL)
 345:Generated_Source\PSoC6\pdl\drivers/peripheral/dma/cy_dma.h **** #define CY_DMA_CTL_TR_IN_TYPE_Msk  ((uint32_t)0x3UL << CY_DMA_CTL_TR_IN_TYPE_Pos)
 346:Generated_Source\PSoC6\pdl\drivers/peripheral/dma/cy_dma.h **** #define CY_DMA_CTL_CH_DISABLE_Pos  (24UL)
 347:Generated_Source\PSoC6\pdl\drivers/peripheral/dma/cy_dma.h **** #define CY_DMA_CTL_CH_DISABLE_Msk  ((uint32_t)0x1UL << CY_DMA_CTL_CH_DISABLE_Pos)
 348:Generated_Source\PSoC6\pdl\drivers/peripheral/dma/cy_dma.h **** #define CY_DMA_CTL_SRC_SIZE_Pos    (26UL)
 349:Generated_Source\PSoC6\pdl\drivers/peripheral/dma/cy_dma.h **** #define CY_DMA_CTL_SRC_SIZE_Msk    ((uint32_t)0x1UL << CY_DMA_CTL_SRC_SIZE_Pos)
 350:Generated_Source\PSoC6\pdl\drivers/peripheral/dma/cy_dma.h **** #define CY_DMA_CTL_DST_SIZE_Pos    (27UL)
 351:Generated_Source\PSoC6\pdl\drivers/peripheral/dma/cy_dma.h **** #define CY_DMA_CTL_DST_SIZE_Msk    ((uint32_t)0x1UL << CY_DMA_CTL_DST_SIZE_Pos)
 352:Generated_Source\PSoC6\pdl\drivers/peripheral/dma/cy_dma.h **** #define CY_DMA_CTL_DATA_SIZE_Pos   (28UL)
 353:Generated_Source\PSoC6\pdl\drivers/peripheral/dma/cy_dma.h **** #define CY_DMA_CTL_DATA_SIZE_Msk   ((uint32_t)0x3UL << CY_DMA_CTL_DATA_SIZE_Pos)
 354:Generated_Source\PSoC6\pdl\drivers/peripheral/dma/cy_dma.h **** #define CY_DMA_CTL_TYPE_Pos        (30UL)
 355:Generated_Source\PSoC6\pdl\drivers/peripheral/dma/cy_dma.h **** #define CY_DMA_CTL_TYPE_Msk        ((uint32_t)0x3UL << CY_DMA_CTL_TYPE_Pos)
 356:Generated_Source\PSoC6\pdl\drivers/peripheral/dma/cy_dma.h **** 
 357:Generated_Source\PSoC6\pdl\drivers/peripheral/dma/cy_dma.h **** #define CY_DMA_CTL_SRC_INCR_Pos    (0UL)
 358:Generated_Source\PSoC6\pdl\drivers/peripheral/dma/cy_dma.h **** #define CY_DMA_CTL_SRC_INCR_Msk    ((uint32_t)0xFFFUL << CY_DMA_CTL_SRC_INCR_Pos)
 359:Generated_Source\PSoC6\pdl\drivers/peripheral/dma/cy_dma.h **** #define CY_DMA_CTL_DST_INCR_Pos    (12UL)
 360:Generated_Source\PSoC6\pdl\drivers/peripheral/dma/cy_dma.h **** #define CY_DMA_CTL_DST_INCR_Msk    ((uint32_t)0xFFFUL << CY_DMA_CTL_DST_INCR_Pos)
 361:Generated_Source\PSoC6\pdl\drivers/peripheral/dma/cy_dma.h **** #define CY_DMA_CTL_COUNT_Pos       (24UL)
ARM GAS  C:\Users\stijn\AppData\Local\Temp\cc6b5yFd.s 			page 8


 362:Generated_Source\PSoC6\pdl\drivers/peripheral/dma/cy_dma.h **** #define CY_DMA_CTL_COUNT_Msk       ((uint32_t)0xFFUL << CY_DMA_CTL_COUNT_Pos)
 363:Generated_Source\PSoC6\pdl\drivers/peripheral/dma/cy_dma.h **** 
 364:Generated_Source\PSoC6\pdl\drivers/peripheral/dma/cy_dma.h **** /** \endcond */
 365:Generated_Source\PSoC6\pdl\drivers/peripheral/dma/cy_dma.h **** 
 366:Generated_Source\PSoC6\pdl\drivers/peripheral/dma/cy_dma.h **** 
 367:Generated_Source\PSoC6\pdl\drivers/peripheral/dma/cy_dma.h **** /**
 368:Generated_Source\PSoC6\pdl\drivers/peripheral/dma/cy_dma.h **** * \addtogroup group_dma_data_structures
 369:Generated_Source\PSoC6\pdl\drivers/peripheral/dma/cy_dma.h **** * \{
 370:Generated_Source\PSoC6\pdl\drivers/peripheral/dma/cy_dma.h **** */
 371:Generated_Source\PSoC6\pdl\drivers/peripheral/dma/cy_dma.h **** 
 372:Generated_Source\PSoC6\pdl\drivers/peripheral/dma/cy_dma.h **** /** 
 373:Generated_Source\PSoC6\pdl\drivers/peripheral/dma/cy_dma.h **** * DMA descriptor structure type. It is a user/component-declared structure 
 374:Generated_Source\PSoC6\pdl\drivers/peripheral/dma/cy_dma.h **** * allocated in RAM. The DMA HW requires a pointer to this structure to work with it.
 375:Generated_Source\PSoC6\pdl\drivers/peripheral/dma/cy_dma.h **** *
 376:Generated_Source\PSoC6\pdl\drivers/peripheral/dma/cy_dma.h **** * For advanced users: the descriptor can be allocated even in flash, then the user
 377:Generated_Source\PSoC6\pdl\drivers/peripheral/dma/cy_dma.h **** * manually predefines all the structure items with constants. This is 
 378:Generated_Source\PSoC6\pdl\drivers/peripheral/dma/cy_dma.h **** * because most of the driver's API (especially functions modifying
 379:Generated_Source\PSoC6\pdl\drivers/peripheral/dma/cy_dma.h **** * descriptors, including \ref Cy_DMA_Descriptor_Init()) can't work with 
 380:Generated_Source\PSoC6\pdl\drivers/peripheral/dma/cy_dma.h **** * read-only descriptors.
 381:Generated_Source\PSoC6\pdl\drivers/peripheral/dma/cy_dma.h **** */
 382:Generated_Source\PSoC6\pdl\drivers/peripheral/dma/cy_dma.h **** typedef struct
 383:Generated_Source\PSoC6\pdl\drivers/peripheral/dma/cy_dma.h **** {
 384:Generated_Source\PSoC6\pdl\drivers/peripheral/dma/cy_dma.h ****     uint32_t ctl;                    /*!< 0x00000000 Descriptor control */
 385:Generated_Source\PSoC6\pdl\drivers/peripheral/dma/cy_dma.h ****     uint32_t src;                    /*!< 0x00000004 Descriptor source */
 386:Generated_Source\PSoC6\pdl\drivers/peripheral/dma/cy_dma.h ****     uint32_t dst;                    /*!< 0x00000008 Descriptor destination */
 387:Generated_Source\PSoC6\pdl\drivers/peripheral/dma/cy_dma.h ****     uint32_t xCtl;                   /*!< 0x0000000C Descriptor X loop control */
 388:Generated_Source\PSoC6\pdl\drivers/peripheral/dma/cy_dma.h ****     uint32_t yCtl;                   /*!< 0x00000010 Descriptor Y loop control */
 389:Generated_Source\PSoC6\pdl\drivers/peripheral/dma/cy_dma.h ****     uint32_t nextPtr;                /*!< 0x00000014 Descriptor next pointer */
 390:Generated_Source\PSoC6\pdl\drivers/peripheral/dma/cy_dma.h **** } cy_stc_dma_descriptor_t;
 391:Generated_Source\PSoC6\pdl\drivers/peripheral/dma/cy_dma.h **** 
 392:Generated_Source\PSoC6\pdl\drivers/peripheral/dma/cy_dma.h **** /**
 393:Generated_Source\PSoC6\pdl\drivers/peripheral/dma/cy_dma.h **** * This structure is a configuration structure pre-initialized by the user and
 394:Generated_Source\PSoC6\pdl\drivers/peripheral/dma/cy_dma.h **** * passed as a parameter to the \ref Cy_DMA_Descriptor_Init().
 395:Generated_Source\PSoC6\pdl\drivers/peripheral/dma/cy_dma.h **** * It can be allocated in RAM/flash (the user's choice).
 396:Generated_Source\PSoC6\pdl\drivers/peripheral/dma/cy_dma.h **** * In case of flash allocation, there is a possibility to reinitialize the descriptor in runtime.
 397:Generated_Source\PSoC6\pdl\drivers/peripheral/dma/cy_dma.h **** * This structure has all the parameters of the descriptor as separate parameters.
 398:Generated_Source\PSoC6\pdl\drivers/peripheral/dma/cy_dma.h **** * Most of these parameters are represented in the \ref cy_stc_dma_descriptor_t structure as bitfiel
 399:Generated_Source\PSoC6\pdl\drivers/peripheral/dma/cy_dma.h **** */
 400:Generated_Source\PSoC6\pdl\drivers/peripheral/dma/cy_dma.h **** typedef struct
 401:Generated_Source\PSoC6\pdl\drivers/peripheral/dma/cy_dma.h **** {
 402:Generated_Source\PSoC6\pdl\drivers/peripheral/dma/cy_dma.h ****     cy_en_dma_retrigger_t       retrigger;       /**< Specifies whether the DW controller should wa
 403:Generated_Source\PSoC6\pdl\drivers/peripheral/dma/cy_dma.h ****     cy_en_dma_trigger_type_t    interruptType;   /**< Sets the event that triggers an interrupt. Se
 404:Generated_Source\PSoC6\pdl\drivers/peripheral/dma/cy_dma.h ****     cy_en_dma_trigger_type_t    triggerOutType;  /**< Sets the event that triggers an output. See \
 405:Generated_Source\PSoC6\pdl\drivers/peripheral/dma/cy_dma.h ****     cy_en_dma_channel_state_t   channelState;    /**< Specifies whether the channel is enabled or d
 406:Generated_Source\PSoC6\pdl\drivers/peripheral/dma/cy_dma.h ****     cy_en_dma_trigger_type_t    triggerInType;   /**< Sets what type of transfer is triggered. See 
 407:Generated_Source\PSoC6\pdl\drivers/peripheral/dma/cy_dma.h ****     cy_en_dma_data_size_t       dataSize;        /**< The size of the data bus for transfer. See \r
 408:Generated_Source\PSoC6\pdl\drivers/peripheral/dma/cy_dma.h ****     cy_en_dma_transfer_size_t   srcTransferSize; /**< The source transfer size. */
 409:Generated_Source\PSoC6\pdl\drivers/peripheral/dma/cy_dma.h ****     cy_en_dma_transfer_size_t   dstTransferSize; /**< The destination transfer size. */
 410:Generated_Source\PSoC6\pdl\drivers/peripheral/dma/cy_dma.h ****     cy_en_dma_descriptor_type_t descriptorType;  /**< The type of the descriptor. See \ref cy_en_dm
 411:Generated_Source\PSoC6\pdl\drivers/peripheral/dma/cy_dma.h ****     void *                      srcAddress;      /**< The source address of the transfer. */
 412:Generated_Source\PSoC6\pdl\drivers/peripheral/dma/cy_dma.h ****     void *                      dstAddress;      /**< The destination address of the transfer.
 413:Generated_Source\PSoC6\pdl\drivers/peripheral/dma/cy_dma.h ****                                                    *  For CPUSS_ver2 only: for CRC transfer, the CR
 414:Generated_Source\PSoC6\pdl\drivers/peripheral/dma/cy_dma.h ****                                                    *  (reversing and/or XORing, if used) is placed 
 415:Generated_Source\PSoC6\pdl\drivers/peripheral/dma/cy_dma.h ****                                                    */
 416:Generated_Source\PSoC6\pdl\drivers/peripheral/dma/cy_dma.h ****     int32_t                     srcXincrement;   /**< The address increment of the source after eac
 417:Generated_Source\PSoC6\pdl\drivers/peripheral/dma/cy_dma.h ****     int32_t                     dstXincrement;   /**< The address increment of the destination afte
 418:Generated_Source\PSoC6\pdl\drivers/peripheral/dma/cy_dma.h ****     uint32_t                    xCount;          /**< The number of transfers in an X-loop. Valid r
ARM GAS  C:\Users\stijn\AppData\Local\Temp\cc6b5yFd.s 			page 9


 419:Generated_Source\PSoC6\pdl\drivers/peripheral/dma/cy_dma.h ****     int32_t                     srcYincrement;   /**< The address increment of the source after eac
 420:Generated_Source\PSoC6\pdl\drivers/peripheral/dma/cy_dma.h ****     int32_t                     dstYincrement;   /**< The address increment of the destination afte
 421:Generated_Source\PSoC6\pdl\drivers/peripheral/dma/cy_dma.h ****     uint32_t                    yCount;          /**< The number of X-loops in the Y-loop. Valid ra
 422:Generated_Source\PSoC6\pdl\drivers/peripheral/dma/cy_dma.h ****     cy_stc_dma_descriptor_t *   nextDescriptor;  /**< The next descriptor to chain after completion
 423:Generated_Source\PSoC6\pdl\drivers/peripheral/dma/cy_dma.h **** } cy_stc_dma_descriptor_config_t;
 424:Generated_Source\PSoC6\pdl\drivers/peripheral/dma/cy_dma.h **** 
 425:Generated_Source\PSoC6\pdl\drivers/peripheral/dma/cy_dma.h **** /** This structure holds the initialization values for the DMA channel */
 426:Generated_Source\PSoC6\pdl\drivers/peripheral/dma/cy_dma.h **** typedef struct
 427:Generated_Source\PSoC6\pdl\drivers/peripheral/dma/cy_dma.h **** {
 428:Generated_Source\PSoC6\pdl\drivers/peripheral/dma/cy_dma.h ****     cy_stc_dma_descriptor_t * descriptor;      /**< The DMA descriptor associated with the channel 
 429:Generated_Source\PSoC6\pdl\drivers/peripheral/dma/cy_dma.h ****     bool     preemptable;                      /**< Specifies whether the channel is preemptable by
 430:Generated_Source\PSoC6\pdl\drivers/peripheral/dma/cy_dma.h ****     uint32_t priority;                         /**< This parameter specifies the channel's priority
 431:Generated_Source\PSoC6\pdl\drivers/peripheral/dma/cy_dma.h ****     bool     enable;                           /**< This parameter specifies whether the channel is
 432:Generated_Source\PSoC6\pdl\drivers/peripheral/dma/cy_dma.h ****     bool     bufferable;                       /**< This parameter specifies whether a write transa
 433:Generated_Source\PSoC6\pdl\drivers/peripheral/dma/cy_dma.h ****                                                     without waiting for the destination to accept t
 434:Generated_Source\PSoC6\pdl\drivers/peripheral/dma/cy_dma.h **** } cy_stc_dma_channel_config_t;
 435:Generated_Source\PSoC6\pdl\drivers/peripheral/dma/cy_dma.h **** 
 436:Generated_Source\PSoC6\pdl\drivers/peripheral/dma/cy_dma.h **** 
 437:Generated_Source\PSoC6\pdl\drivers/peripheral/dma/cy_dma.h **** /** This structure holds the initialization values for the CRC feature, only for CPUSS_ver2 */
 438:Generated_Source\PSoC6\pdl\drivers/peripheral/dma/cy_dma.h **** typedef struct
 439:Generated_Source\PSoC6\pdl\drivers/peripheral/dma/cy_dma.h **** {
 440:Generated_Source\PSoC6\pdl\drivers/peripheral/dma/cy_dma.h ****     bool     dataReverse;     /**< Specifies the bit order in which a data byte is processed (rever
 441:Generated_Source\PSoC6\pdl\drivers/peripheral/dma/cy_dma.h ****                                * 'false': Most significant bit (bit 1) first.
 442:Generated_Source\PSoC6\pdl\drivers/peripheral/dma/cy_dma.h ****                                * 'true': Least significant bit (bit 0) first.
 443:Generated_Source\PSoC6\pdl\drivers/peripheral/dma/cy_dma.h ****                                */
 444:Generated_Source\PSoC6\pdl\drivers/peripheral/dma/cy_dma.h ****     uint32_t dataXor;         /**< Specifies a byte mask with which each data byte is XORed. The XO
 445:Generated_Source\PSoC6\pdl\drivers/peripheral/dma/cy_dma.h ****     bool     reminderReverse; /**< Specifies whether the remainder is bit reversed (reversal is per
 446:Generated_Source\PSoC6\pdl\drivers/peripheral/dma/cy_dma.h ****                                *   Note: this parameter doesn't affect the CRC value stored into th
 447:Generated_Source\PSoC6\pdl\drivers/peripheral/dma/cy_dma.h ****                                *   The reversed value remains in the CRC_REM_RESULT register.
 448:Generated_Source\PSoC6\pdl\drivers/peripheral/dma/cy_dma.h ****                                */
 449:Generated_Source\PSoC6\pdl\drivers/peripheral/dma/cy_dma.h ****     uint32_t reminderXor;     /**< Specifies a mask with which the remainder is XORed. The XOR is p
 450:Generated_Source\PSoC6\pdl\drivers/peripheral/dma/cy_dma.h ****                                *   Note: this parameter doesn't affect the CRC value stored into th
 451:Generated_Source\PSoC6\pdl\drivers/peripheral/dma/cy_dma.h ****                                *   The XORed value remains in the CRC_REM_RESULT register.
 452:Generated_Source\PSoC6\pdl\drivers/peripheral/dma/cy_dma.h ****                                */
 453:Generated_Source\PSoC6\pdl\drivers/peripheral/dma/cy_dma.h ****     uint32_t polynomial;      /**< CRC polynomial. The polynomial is represented WITHOUT the high o
 454:Generated_Source\PSoC6\pdl\drivers/peripheral/dma/cy_dma.h ****                                * The polynomial should be aligned/shifted such that the more signif
 455:Generated_Source\PSoC6\pdl\drivers/peripheral/dma/cy_dma.h ****                                * and the less significant bits (bit 0 and up) contain padding '0's.
 456:Generated_Source\PSoC6\pdl\drivers/peripheral/dma/cy_dma.h ****                                * - CRC32: POLYNOMIAL is 0x04c11db7 (x^32 + x^26 + x^23 + x^22 + x^1
 457:Generated_Source\PSoC6\pdl\drivers/peripheral/dma/cy_dma.h ****                                * - CRC16: POLYNOMIAL is 0x80050000 (x^16 + x^15 + x^2 + 1, shifted 
 458:Generated_Source\PSoC6\pdl\drivers/peripheral/dma/cy_dma.h ****                                * - CRC16 CCITT: POLYNOMIAL is 0x10210000 (x^16 + x^12 + x^5 + 1, sh
 459:Generated_Source\PSoC6\pdl\drivers/peripheral/dma/cy_dma.h ****                                */
 460:Generated_Source\PSoC6\pdl\drivers/peripheral/dma/cy_dma.h ****     uint32_t lfsrInitVal;     /**< The initial value of the Linear Feedback Shift Register */
 461:Generated_Source\PSoC6\pdl\drivers/peripheral/dma/cy_dma.h **** } cy_stc_dma_crc_config_t;
 462:Generated_Source\PSoC6\pdl\drivers/peripheral/dma/cy_dma.h **** 
 463:Generated_Source\PSoC6\pdl\drivers/peripheral/dma/cy_dma.h **** /** \} group_dma_data_structures */
 464:Generated_Source\PSoC6\pdl\drivers/peripheral/dma/cy_dma.h **** 
 465:Generated_Source\PSoC6\pdl\drivers/peripheral/dma/cy_dma.h **** 
 466:Generated_Source\PSoC6\pdl\drivers/peripheral/dma/cy_dma.h **** /**
 467:Generated_Source\PSoC6\pdl\drivers/peripheral/dma/cy_dma.h **** * \addtogroup group_dma_functions
 468:Generated_Source\PSoC6\pdl\drivers/peripheral/dma/cy_dma.h **** * \{
 469:Generated_Source\PSoC6\pdl\drivers/peripheral/dma/cy_dma.h **** */
 470:Generated_Source\PSoC6\pdl\drivers/peripheral/dma/cy_dma.h **** 
 471:Generated_Source\PSoC6\pdl\drivers/peripheral/dma/cy_dma.h **** 
 472:Generated_Source\PSoC6\pdl\drivers/peripheral/dma/cy_dma.h **** /**
 473:Generated_Source\PSoC6\pdl\drivers/peripheral/dma/cy_dma.h **** * \addtogroup group_dma_block_functions
 474:Generated_Source\PSoC6\pdl\drivers/peripheral/dma/cy_dma.h **** * \{
 475:Generated_Source\PSoC6\pdl\drivers/peripheral/dma/cy_dma.h **** */
ARM GAS  C:\Users\stijn\AppData\Local\Temp\cc6b5yFd.s 			page 10


 476:Generated_Source\PSoC6\pdl\drivers/peripheral/dma/cy_dma.h **** 
 477:Generated_Source\PSoC6\pdl\drivers/peripheral/dma/cy_dma.h **** 
 478:Generated_Source\PSoC6\pdl\drivers/peripheral/dma/cy_dma.h **** __STATIC_INLINE void     Cy_DMA_Enable             (DW_Type * base);
 479:Generated_Source\PSoC6\pdl\drivers/peripheral/dma/cy_dma.h **** __STATIC_INLINE void     Cy_DMA_Disable            (DW_Type * base);
 480:Generated_Source\PSoC6\pdl\drivers/peripheral/dma/cy_dma.h **** __STATIC_INLINE uint32_t Cy_DMA_GetActiveChannel   (DW_Type const * base);
 481:Generated_Source\PSoC6\pdl\drivers/peripheral/dma/cy_dma.h **** __STATIC_INLINE void *   Cy_DMA_GetActiveSrcAddress(DW_Type * base);
 482:Generated_Source\PSoC6\pdl\drivers/peripheral/dma/cy_dma.h **** __STATIC_INLINE void *   Cy_DMA_GetActiveDstAddress(DW_Type * base);
 483:Generated_Source\PSoC6\pdl\drivers/peripheral/dma/cy_dma.h ****       cy_en_dma_status_t Cy_DMA_Crc_Init           (DW_Type * base, cy_stc_dma_crc_config_t const *
 484:Generated_Source\PSoC6\pdl\drivers/peripheral/dma/cy_dma.h **** 
 485:Generated_Source\PSoC6\pdl\drivers/peripheral/dma/cy_dma.h **** /** \} group_dma_block_functions */
 486:Generated_Source\PSoC6\pdl\drivers/peripheral/dma/cy_dma.h **** 
 487:Generated_Source\PSoC6\pdl\drivers/peripheral/dma/cy_dma.h **** 
 488:Generated_Source\PSoC6\pdl\drivers/peripheral/dma/cy_dma.h **** /**
 489:Generated_Source\PSoC6\pdl\drivers/peripheral/dma/cy_dma.h **** * \addtogroup group_dma_channel_functions
 490:Generated_Source\PSoC6\pdl\drivers/peripheral/dma/cy_dma.h **** * \{
 491:Generated_Source\PSoC6\pdl\drivers/peripheral/dma/cy_dma.h **** */
 492:Generated_Source\PSoC6\pdl\drivers/peripheral/dma/cy_dma.h ****       cy_en_dma_status_t Cy_DMA_Channel_Init                    (DW_Type       * base, uint32_t cha
 493:Generated_Source\PSoC6\pdl\drivers/peripheral/dma/cy_dma.h ****                 void     Cy_DMA_Channel_DeInit                  (DW_Type       * base, uint32_t cha
 494:Generated_Source\PSoC6\pdl\drivers/peripheral/dma/cy_dma.h **** __STATIC_INLINE void     Cy_DMA_Channel_SetDescriptor           (DW_Type       * base, uint32_t cha
 495:Generated_Source\PSoC6\pdl\drivers/peripheral/dma/cy_dma.h **** __STATIC_INLINE void     Cy_DMA_Channel_Enable                  (DW_Type       * base, uint32_t cha
 496:Generated_Source\PSoC6\pdl\drivers/peripheral/dma/cy_dma.h **** __STATIC_INLINE void     Cy_DMA_Channel_Disable                 (DW_Type       * base, uint32_t cha
 497:Generated_Source\PSoC6\pdl\drivers/peripheral/dma/cy_dma.h **** __STATIC_INLINE void     Cy_DMA_Channel_SetPriority             (DW_Type       * base, uint32_t cha
 498:Generated_Source\PSoC6\pdl\drivers/peripheral/dma/cy_dma.h **** __STATIC_INLINE uint32_t Cy_DMA_Channel_GetPriority             (DW_Type const * base, uint32_t cha
 499:Generated_Source\PSoC6\pdl\drivers/peripheral/dma/cy_dma.h **** __STATIC_INLINE
 500:Generated_Source\PSoC6\pdl\drivers/peripheral/dma/cy_dma.h ****   cy_en_dma_intr_cause_t Cy_DMA_Channel_GetStatus               (DW_Type const * base, uint32_t cha
 501:Generated_Source\PSoC6\pdl\drivers/peripheral/dma/cy_dma.h **** __STATIC_INLINE
 502:Generated_Source\PSoC6\pdl\drivers/peripheral/dma/cy_dma.h **** cy_stc_dma_descriptor_t * Cy_DMA_Channel_GetCurrentDescriptor   (DW_Type const * base, uint32_t cha
 503:Generated_Source\PSoC6\pdl\drivers/peripheral/dma/cy_dma.h **** 
 504:Generated_Source\PSoC6\pdl\drivers/peripheral/dma/cy_dma.h **** __STATIC_INLINE uint32_t Cy_DMA_Channel_GetInterruptStatus      (DW_Type const * base, uint32_t cha
 505:Generated_Source\PSoC6\pdl\drivers/peripheral/dma/cy_dma.h **** __STATIC_INLINE void     Cy_DMA_Channel_ClearInterrupt          (DW_Type       * base, uint32_t cha
 506:Generated_Source\PSoC6\pdl\drivers/peripheral/dma/cy_dma.h **** __STATIC_INLINE void     Cy_DMA_Channel_SetInterrupt            (DW_Type       * base, uint32_t cha
 507:Generated_Source\PSoC6\pdl\drivers/peripheral/dma/cy_dma.h **** __STATIC_INLINE uint32_t Cy_DMA_Channel_GetInterruptMask        (DW_Type const * base, uint32_t cha
 508:Generated_Source\PSoC6\pdl\drivers/peripheral/dma/cy_dma.h **** __STATIC_INLINE void     Cy_DMA_Channel_SetInterruptMask        (DW_Type       * base, uint32_t cha
 509:Generated_Source\PSoC6\pdl\drivers/peripheral/dma/cy_dma.h **** __STATIC_INLINE uint32_t Cy_DMA_Channel_GetInterruptStatusMasked(DW_Type const * base, uint32_t cha
 510:Generated_Source\PSoC6\pdl\drivers/peripheral/dma/cy_dma.h **** 
 511:Generated_Source\PSoC6\pdl\drivers/peripheral/dma/cy_dma.h **** /** \} group_dma_channel_functions */
 512:Generated_Source\PSoC6\pdl\drivers/peripheral/dma/cy_dma.h **** 
 513:Generated_Source\PSoC6\pdl\drivers/peripheral/dma/cy_dma.h **** 
 514:Generated_Source\PSoC6\pdl\drivers/peripheral/dma/cy_dma.h **** /**
 515:Generated_Source\PSoC6\pdl\drivers/peripheral/dma/cy_dma.h **** * \addtogroup group_dma_descriptor_functions
 516:Generated_Source\PSoC6\pdl\drivers/peripheral/dma/cy_dma.h **** * \{
 517:Generated_Source\PSoC6\pdl\drivers/peripheral/dma/cy_dma.h **** */
 518:Generated_Source\PSoC6\pdl\drivers/peripheral/dma/cy_dma.h **** 
 519:Generated_Source\PSoC6\pdl\drivers/peripheral/dma/cy_dma.h ****   cy_en_dma_status_t Cy_DMA_Descriptor_Init  (cy_stc_dma_descriptor_t * descriptor, cy_stc_dma_desc
 520:Generated_Source\PSoC6\pdl\drivers/peripheral/dma/cy_dma.h ****                 void Cy_DMA_Descriptor_DeInit(cy_stc_dma_descriptor_t * descriptor);
 521:Generated_Source\PSoC6\pdl\drivers/peripheral/dma/cy_dma.h ****                 
 522:Generated_Source\PSoC6\pdl\drivers/peripheral/dma/cy_dma.h ****                 void Cy_DMA_Descriptor_SetNextDescriptor   (cy_stc_dma_descriptor_t * descriptor, c
 523:Generated_Source\PSoC6\pdl\drivers/peripheral/dma/cy_dma.h ****                 void Cy_DMA_Descriptor_SetDescriptorType   (cy_stc_dma_descriptor_t * descriptor, c
 524:Generated_Source\PSoC6\pdl\drivers/peripheral/dma/cy_dma.h **** __STATIC_INLINE void Cy_DMA_Descriptor_SetSrcAddress       (cy_stc_dma_descriptor_t * descriptor, v
 525:Generated_Source\PSoC6\pdl\drivers/peripheral/dma/cy_dma.h **** __STATIC_INLINE void Cy_DMA_Descriptor_SetDstAddress       (cy_stc_dma_descriptor_t * descriptor, v
 526:Generated_Source\PSoC6\pdl\drivers/peripheral/dma/cy_dma.h **** __STATIC_INLINE void Cy_DMA_Descriptor_SetXloopDataCount   (cy_stc_dma_descriptor_t * descriptor, u
 527:Generated_Source\PSoC6\pdl\drivers/peripheral/dma/cy_dma.h **** __STATIC_INLINE void Cy_DMA_Descriptor_SetYloopDataCount   (cy_stc_dma_descriptor_t * descriptor, u
 528:Generated_Source\PSoC6\pdl\drivers/peripheral/dma/cy_dma.h **** __STATIC_INLINE void Cy_DMA_Descriptor_SetXloopSrcIncrement(cy_stc_dma_descriptor_t * descriptor, i
 529:Generated_Source\PSoC6\pdl\drivers/peripheral/dma/cy_dma.h **** __STATIC_INLINE void Cy_DMA_Descriptor_SetXloopDstIncrement(cy_stc_dma_descriptor_t * descriptor, i
 530:Generated_Source\PSoC6\pdl\drivers/peripheral/dma/cy_dma.h **** __STATIC_INLINE void Cy_DMA_Descriptor_SetYloopSrcIncrement(cy_stc_dma_descriptor_t * descriptor, i
 531:Generated_Source\PSoC6\pdl\drivers/peripheral/dma/cy_dma.h **** __STATIC_INLINE void Cy_DMA_Descriptor_SetYloopDstIncrement(cy_stc_dma_descriptor_t * descriptor, i
 532:Generated_Source\PSoC6\pdl\drivers/peripheral/dma/cy_dma.h **** __STATIC_INLINE void Cy_DMA_Descriptor_SetInterruptType    (cy_stc_dma_descriptor_t * descriptor, c
ARM GAS  C:\Users\stijn\AppData\Local\Temp\cc6b5yFd.s 			page 11


 533:Generated_Source\PSoC6\pdl\drivers/peripheral/dma/cy_dma.h **** __STATIC_INLINE void Cy_DMA_Descriptor_SetTriggerInType    (cy_stc_dma_descriptor_t * descriptor, c
 534:Generated_Source\PSoC6\pdl\drivers/peripheral/dma/cy_dma.h **** __STATIC_INLINE void Cy_DMA_Descriptor_SetTriggerOutType   (cy_stc_dma_descriptor_t * descriptor, c
 535:Generated_Source\PSoC6\pdl\drivers/peripheral/dma/cy_dma.h **** __STATIC_INLINE void Cy_DMA_Descriptor_SetDataSize         (cy_stc_dma_descriptor_t * descriptor, c
 536:Generated_Source\PSoC6\pdl\drivers/peripheral/dma/cy_dma.h **** __STATIC_INLINE void Cy_DMA_Descriptor_SetSrcTransferSize  (cy_stc_dma_descriptor_t * descriptor, c
 537:Generated_Source\PSoC6\pdl\drivers/peripheral/dma/cy_dma.h **** __STATIC_INLINE void Cy_DMA_Descriptor_SetDstTransferSize  (cy_stc_dma_descriptor_t * descriptor, c
 538:Generated_Source\PSoC6\pdl\drivers/peripheral/dma/cy_dma.h **** __STATIC_INLINE void Cy_DMA_Descriptor_SetRetrigger        (cy_stc_dma_descriptor_t * descriptor, c
 539:Generated_Source\PSoC6\pdl\drivers/peripheral/dma/cy_dma.h **** __STATIC_INLINE void Cy_DMA_Descriptor_SetChannelState     (cy_stc_dma_descriptor_t * descriptor, c
 540:Generated_Source\PSoC6\pdl\drivers/peripheral/dma/cy_dma.h **** 
 541:Generated_Source\PSoC6\pdl\drivers/peripheral/dma/cy_dma.h ****                 cy_stc_dma_descriptor_t *   Cy_DMA_Descriptor_GetNextDescriptor   (cy_stc_dma_descr
 542:Generated_Source\PSoC6\pdl\drivers/peripheral/dma/cy_dma.h **** __STATIC_INLINE cy_en_dma_descriptor_type_t Cy_DMA_Descriptor_GetDescriptorType   (cy_stc_dma_descr
 543:Generated_Source\PSoC6\pdl\drivers/peripheral/dma/cy_dma.h **** __STATIC_INLINE void *                      Cy_DMA_Descriptor_GetSrcAddress       (cy_stc_dma_descr
 544:Generated_Source\PSoC6\pdl\drivers/peripheral/dma/cy_dma.h **** __STATIC_INLINE void *                      Cy_DMA_Descriptor_GetDstAddress       (cy_stc_dma_descr
 545:Generated_Source\PSoC6\pdl\drivers/peripheral/dma/cy_dma.h **** __STATIC_INLINE uint32_t                    Cy_DMA_Descriptor_GetXloopDataCount   (cy_stc_dma_descr
 546:Generated_Source\PSoC6\pdl\drivers/peripheral/dma/cy_dma.h **** __STATIC_INLINE uint32_t                    Cy_DMA_Descriptor_GetYloopDataCount   (cy_stc_dma_descr
 547:Generated_Source\PSoC6\pdl\drivers/peripheral/dma/cy_dma.h **** __STATIC_INLINE int32_t                     Cy_DMA_Descriptor_GetXloopSrcIncrement(cy_stc_dma_descr
 548:Generated_Source\PSoC6\pdl\drivers/peripheral/dma/cy_dma.h **** __STATIC_INLINE int32_t                     Cy_DMA_Descriptor_GetXloopDstIncrement(cy_stc_dma_descr
 549:Generated_Source\PSoC6\pdl\drivers/peripheral/dma/cy_dma.h **** __STATIC_INLINE int32_t                     Cy_DMA_Descriptor_GetYloopSrcIncrement(cy_stc_dma_descr
 550:Generated_Source\PSoC6\pdl\drivers/peripheral/dma/cy_dma.h **** __STATIC_INLINE int32_t                     Cy_DMA_Descriptor_GetYloopDstIncrement(cy_stc_dma_descr
 551:Generated_Source\PSoC6\pdl\drivers/peripheral/dma/cy_dma.h **** __STATIC_INLINE cy_en_dma_trigger_type_t    Cy_DMA_Descriptor_GetInterruptType    (cy_stc_dma_descr
 552:Generated_Source\PSoC6\pdl\drivers/peripheral/dma/cy_dma.h **** __STATIC_INLINE cy_en_dma_trigger_type_t    Cy_DMA_Descriptor_GetTriggerInType    (cy_stc_dma_descr
 553:Generated_Source\PSoC6\pdl\drivers/peripheral/dma/cy_dma.h **** __STATIC_INLINE cy_en_dma_trigger_type_t    Cy_DMA_Descriptor_GetTriggerOutType   (cy_stc_dma_descr
 554:Generated_Source\PSoC6\pdl\drivers/peripheral/dma/cy_dma.h **** __STATIC_INLINE cy_en_dma_data_size_t       Cy_DMA_Descriptor_GetDataSize         (cy_stc_dma_descr
 555:Generated_Source\PSoC6\pdl\drivers/peripheral/dma/cy_dma.h **** __STATIC_INLINE cy_en_dma_transfer_size_t   Cy_DMA_Descriptor_GetSrcTransferSize  (cy_stc_dma_descr
 556:Generated_Source\PSoC6\pdl\drivers/peripheral/dma/cy_dma.h **** __STATIC_INLINE cy_en_dma_transfer_size_t   Cy_DMA_Descriptor_GetDstTransferSize  (cy_stc_dma_descr
 557:Generated_Source\PSoC6\pdl\drivers/peripheral/dma/cy_dma.h **** __STATIC_INLINE cy_en_dma_retrigger_t       Cy_DMA_Descriptor_GetRetrigger        (cy_stc_dma_descr
 558:Generated_Source\PSoC6\pdl\drivers/peripheral/dma/cy_dma.h **** __STATIC_INLINE cy_en_dma_channel_state_t   Cy_DMA_Descriptor_GetChannelState     (cy_stc_dma_descr
 559:Generated_Source\PSoC6\pdl\drivers/peripheral/dma/cy_dma.h **** 
 560:Generated_Source\PSoC6\pdl\drivers/peripheral/dma/cy_dma.h **** /** \} group_dma_descriptor_functions */
 561:Generated_Source\PSoC6\pdl\drivers/peripheral/dma/cy_dma.h **** 
 562:Generated_Source\PSoC6\pdl\drivers/peripheral/dma/cy_dma.h **** 
 563:Generated_Source\PSoC6\pdl\drivers/peripheral/dma/cy_dma.h **** 
 564:Generated_Source\PSoC6\pdl\drivers/peripheral/dma/cy_dma.h **** /***************************************
 565:Generated_Source\PSoC6\pdl\drivers/peripheral/dma/cy_dma.h **** *    In-line Function Implementation
 566:Generated_Source\PSoC6\pdl\drivers/peripheral/dma/cy_dma.h **** ***************************************/
 567:Generated_Source\PSoC6\pdl\drivers/peripheral/dma/cy_dma.h **** 
 568:Generated_Source\PSoC6\pdl\drivers/peripheral/dma/cy_dma.h **** 
 569:Generated_Source\PSoC6\pdl\drivers/peripheral/dma/cy_dma.h **** /**
 570:Generated_Source\PSoC6\pdl\drivers/peripheral/dma/cy_dma.h **** * \addtogroup group_dma_block_functions
 571:Generated_Source\PSoC6\pdl\drivers/peripheral/dma/cy_dma.h **** * \{
 572:Generated_Source\PSoC6\pdl\drivers/peripheral/dma/cy_dma.h **** */
 573:Generated_Source\PSoC6\pdl\drivers/peripheral/dma/cy_dma.h **** 
 574:Generated_Source\PSoC6\pdl\drivers/peripheral/dma/cy_dma.h **** 
 575:Generated_Source\PSoC6\pdl\drivers/peripheral/dma/cy_dma.h **** /*******************************************************************************
 576:Generated_Source\PSoC6\pdl\drivers/peripheral/dma/cy_dma.h **** * Function Name: Cy_DMA_Enable
 577:Generated_Source\PSoC6\pdl\drivers/peripheral/dma/cy_dma.h **** ****************************************************************************//**
 578:Generated_Source\PSoC6\pdl\drivers/peripheral/dma/cy_dma.h **** *
 579:Generated_Source\PSoC6\pdl\drivers/peripheral/dma/cy_dma.h **** * Enables the DMA block.
 580:Generated_Source\PSoC6\pdl\drivers/peripheral/dma/cy_dma.h **** *
 581:Generated_Source\PSoC6\pdl\drivers/peripheral/dma/cy_dma.h **** * \param base
 582:Generated_Source\PSoC6\pdl\drivers/peripheral/dma/cy_dma.h **** * The pointer to the hardware DMA block.
 583:Generated_Source\PSoC6\pdl\drivers/peripheral/dma/cy_dma.h **** *
 584:Generated_Source\PSoC6\pdl\drivers/peripheral/dma/cy_dma.h **** * \funcusage 
 585:Generated_Source\PSoC6\pdl\drivers/peripheral/dma/cy_dma.h **** * \snippet dma\2.10\snippet\main.c snippet_Cy_DMA_Enable
 586:Generated_Source\PSoC6\pdl\drivers/peripheral/dma/cy_dma.h **** *
 587:Generated_Source\PSoC6\pdl\drivers/peripheral/dma/cy_dma.h **** *******************************************************************************/
 588:Generated_Source\PSoC6\pdl\drivers/peripheral/dma/cy_dma.h **** __STATIC_INLINE void Cy_DMA_Enable(DW_Type * base)
 589:Generated_Source\PSoC6\pdl\drivers/peripheral/dma/cy_dma.h **** {
ARM GAS  C:\Users\stijn\AppData\Local\Temp\cc6b5yFd.s 			page 12


 590:Generated_Source\PSoC6\pdl\drivers/peripheral/dma/cy_dma.h ****     DW_CTL(base) |= DW_CTL_ENABLED_Msk;
 591:Generated_Source\PSoC6\pdl\drivers/peripheral/dma/cy_dma.h **** }
 592:Generated_Source\PSoC6\pdl\drivers/peripheral/dma/cy_dma.h **** 
 593:Generated_Source\PSoC6\pdl\drivers/peripheral/dma/cy_dma.h **** 
 594:Generated_Source\PSoC6\pdl\drivers/peripheral/dma/cy_dma.h **** /*******************************************************************************
 595:Generated_Source\PSoC6\pdl\drivers/peripheral/dma/cy_dma.h **** * Function Name: Cy_DMA_Disable
 596:Generated_Source\PSoC6\pdl\drivers/peripheral/dma/cy_dma.h **** ****************************************************************************//**
 597:Generated_Source\PSoC6\pdl\drivers/peripheral/dma/cy_dma.h **** *
 598:Generated_Source\PSoC6\pdl\drivers/peripheral/dma/cy_dma.h **** * Disables the DMA block.
 599:Generated_Source\PSoC6\pdl\drivers/peripheral/dma/cy_dma.h **** *
 600:Generated_Source\PSoC6\pdl\drivers/peripheral/dma/cy_dma.h **** * \param base
 601:Generated_Source\PSoC6\pdl\drivers/peripheral/dma/cy_dma.h **** * The pointer to the hardware DMA block.
 602:Generated_Source\PSoC6\pdl\drivers/peripheral/dma/cy_dma.h **** *
 603:Generated_Source\PSoC6\pdl\drivers/peripheral/dma/cy_dma.h **** * \funcusage 
 604:Generated_Source\PSoC6\pdl\drivers/peripheral/dma/cy_dma.h **** * \snippet dma\2.10\snippet\main.c snippet_Cy_DMA_Disable
 605:Generated_Source\PSoC6\pdl\drivers/peripheral/dma/cy_dma.h **** *
 606:Generated_Source\PSoC6\pdl\drivers/peripheral/dma/cy_dma.h **** *******************************************************************************/
 607:Generated_Source\PSoC6\pdl\drivers/peripheral/dma/cy_dma.h **** __STATIC_INLINE void Cy_DMA_Disable(DW_Type * base)
 608:Generated_Source\PSoC6\pdl\drivers/peripheral/dma/cy_dma.h **** {
 609:Generated_Source\PSoC6\pdl\drivers/peripheral/dma/cy_dma.h ****     DW_CTL(base) &= (uint32_t) ~DW_CTL_ENABLED_Msk;
 610:Generated_Source\PSoC6\pdl\drivers/peripheral/dma/cy_dma.h **** }
 611:Generated_Source\PSoC6\pdl\drivers/peripheral/dma/cy_dma.h **** 
 612:Generated_Source\PSoC6\pdl\drivers/peripheral/dma/cy_dma.h **** 
 613:Generated_Source\PSoC6\pdl\drivers/peripheral/dma/cy_dma.h **** /*******************************************************************************
 614:Generated_Source\PSoC6\pdl\drivers/peripheral/dma/cy_dma.h **** * Function Name: Cy_DMA_GetActiveChannel
 615:Generated_Source\PSoC6\pdl\drivers/peripheral/dma/cy_dma.h **** ****************************************************************************//**
 616:Generated_Source\PSoC6\pdl\drivers/peripheral/dma/cy_dma.h **** *
 617:Generated_Source\PSoC6\pdl\drivers/peripheral/dma/cy_dma.h **** * Returns the status of the active/pending channels.
 618:Generated_Source\PSoC6\pdl\drivers/peripheral/dma/cy_dma.h **** * the DMA block.
 619:Generated_Source\PSoC6\pdl\drivers/peripheral/dma/cy_dma.h **** *
 620:Generated_Source\PSoC6\pdl\drivers/peripheral/dma/cy_dma.h **** * \param base
 621:Generated_Source\PSoC6\pdl\drivers/peripheral/dma/cy_dma.h **** * The pointer to the hardware DMA block.
 622:Generated_Source\PSoC6\pdl\drivers/peripheral/dma/cy_dma.h **** *
 623:Generated_Source\PSoC6\pdl\drivers/peripheral/dma/cy_dma.h **** * \return
 624:Generated_Source\PSoC6\pdl\drivers/peripheral/dma/cy_dma.h **** * Returns a bit-field with all of the currently active/pending channels in the
 625:Generated_Source\PSoC6\pdl\drivers/peripheral/dma/cy_dma.h **** * DMA block.
 626:Generated_Source\PSoC6\pdl\drivers/peripheral/dma/cy_dma.h **** *
 627:Generated_Source\PSoC6\pdl\drivers/peripheral/dma/cy_dma.h **** * \funcusage 
 628:Generated_Source\PSoC6\pdl\drivers/peripheral/dma/cy_dma.h **** * \snippet dma\2.10\snippet\main.c snippet_Cy_DMA_Disable
 629:Generated_Source\PSoC6\pdl\drivers/peripheral/dma/cy_dma.h **** *
 630:Generated_Source\PSoC6\pdl\drivers/peripheral/dma/cy_dma.h **** *******************************************************************************/
 631:Generated_Source\PSoC6\pdl\drivers/peripheral/dma/cy_dma.h **** __STATIC_INLINE uint32_t Cy_DMA_GetActiveChannel(DW_Type const * base)
 632:Generated_Source\PSoC6\pdl\drivers/peripheral/dma/cy_dma.h **** {
 633:Generated_Source\PSoC6\pdl\drivers/peripheral/dma/cy_dma.h ****     return(_FLD2VAL(CY_DW_STATUS_CH_IDX, DW_STATUS(base)));
 634:Generated_Source\PSoC6\pdl\drivers/peripheral/dma/cy_dma.h **** }
 635:Generated_Source\PSoC6\pdl\drivers/peripheral/dma/cy_dma.h **** 
 636:Generated_Source\PSoC6\pdl\drivers/peripheral/dma/cy_dma.h **** 
 637:Generated_Source\PSoC6\pdl\drivers/peripheral/dma/cy_dma.h **** /*******************************************************************************
 638:Generated_Source\PSoC6\pdl\drivers/peripheral/dma/cy_dma.h **** * Function Name: Cy_DMA_GetActiveSrcAddress
 639:Generated_Source\PSoC6\pdl\drivers/peripheral/dma/cy_dma.h **** ****************************************************************************//**
 640:Generated_Source\PSoC6\pdl\drivers/peripheral/dma/cy_dma.h **** *
 641:Generated_Source\PSoC6\pdl\drivers/peripheral/dma/cy_dma.h **** * Returns the source address being used for the current transfer.
 642:Generated_Source\PSoC6\pdl\drivers/peripheral/dma/cy_dma.h **** *
 643:Generated_Source\PSoC6\pdl\drivers/peripheral/dma/cy_dma.h **** * \param base
 644:Generated_Source\PSoC6\pdl\drivers/peripheral/dma/cy_dma.h **** * The pointer to the hardware DMA block.
 645:Generated_Source\PSoC6\pdl\drivers/peripheral/dma/cy_dma.h **** *
 646:Generated_Source\PSoC6\pdl\drivers/peripheral/dma/cy_dma.h **** * \return
ARM GAS  C:\Users\stijn\AppData\Local\Temp\cc6b5yFd.s 			page 13


 647:Generated_Source\PSoC6\pdl\drivers/peripheral/dma/cy_dma.h **** * Returns the pointer to the source of transfer.
 648:Generated_Source\PSoC6\pdl\drivers/peripheral/dma/cy_dma.h **** *
 649:Generated_Source\PSoC6\pdl\drivers/peripheral/dma/cy_dma.h **** * \funcusage 
 650:Generated_Source\PSoC6\pdl\drivers/peripheral/dma/cy_dma.h **** * \snippet dma\2.10\snippet\main.c snippet_Cy_DMA_GetActiveSrcAddress
 651:Generated_Source\PSoC6\pdl\drivers/peripheral/dma/cy_dma.h **** *
 652:Generated_Source\PSoC6\pdl\drivers/peripheral/dma/cy_dma.h **** *******************************************************************************/
 653:Generated_Source\PSoC6\pdl\drivers/peripheral/dma/cy_dma.h **** __STATIC_INLINE void * Cy_DMA_GetActiveSrcAddress(DW_Type * base)
 654:Generated_Source\PSoC6\pdl\drivers/peripheral/dma/cy_dma.h **** {
 655:Generated_Source\PSoC6\pdl\drivers/peripheral/dma/cy_dma.h ****     return ((void *) DW_DESCR_SRC(base));
 656:Generated_Source\PSoC6\pdl\drivers/peripheral/dma/cy_dma.h **** }
 657:Generated_Source\PSoC6\pdl\drivers/peripheral/dma/cy_dma.h **** 
 658:Generated_Source\PSoC6\pdl\drivers/peripheral/dma/cy_dma.h **** 
 659:Generated_Source\PSoC6\pdl\drivers/peripheral/dma/cy_dma.h **** /*******************************************************************************
 660:Generated_Source\PSoC6\pdl\drivers/peripheral/dma/cy_dma.h **** * Function Name: Cy_DMA_GetActiveDstAddress
 661:Generated_Source\PSoC6\pdl\drivers/peripheral/dma/cy_dma.h **** ****************************************************************************//**
 662:Generated_Source\PSoC6\pdl\drivers/peripheral/dma/cy_dma.h **** *
 663:Generated_Source\PSoC6\pdl\drivers/peripheral/dma/cy_dma.h **** * Returns the destination address being used for the current transfer.
 664:Generated_Source\PSoC6\pdl\drivers/peripheral/dma/cy_dma.h **** *
 665:Generated_Source\PSoC6\pdl\drivers/peripheral/dma/cy_dma.h **** * \param base
 666:Generated_Source\PSoC6\pdl\drivers/peripheral/dma/cy_dma.h **** * The pointer to the hardware DMA block.
 667:Generated_Source\PSoC6\pdl\drivers/peripheral/dma/cy_dma.h **** *
 668:Generated_Source\PSoC6\pdl\drivers/peripheral/dma/cy_dma.h **** * \return
 669:Generated_Source\PSoC6\pdl\drivers/peripheral/dma/cy_dma.h **** * Returns the pointer to the destination of transfer.
 670:Generated_Source\PSoC6\pdl\drivers/peripheral/dma/cy_dma.h **** *
 671:Generated_Source\PSoC6\pdl\drivers/peripheral/dma/cy_dma.h **** * \funcusage 
 672:Generated_Source\PSoC6\pdl\drivers/peripheral/dma/cy_dma.h **** * \snippet dma\2.10\snippet\main.c snippet_Cy_DMA_GetActiveSrcAddress
 673:Generated_Source\PSoC6\pdl\drivers/peripheral/dma/cy_dma.h **** *
 674:Generated_Source\PSoC6\pdl\drivers/peripheral/dma/cy_dma.h **** *******************************************************************************/
 675:Generated_Source\PSoC6\pdl\drivers/peripheral/dma/cy_dma.h **** __STATIC_INLINE void * Cy_DMA_GetActiveDstAddress(DW_Type * base)
 676:Generated_Source\PSoC6\pdl\drivers/peripheral/dma/cy_dma.h **** {
 677:Generated_Source\PSoC6\pdl\drivers/peripheral/dma/cy_dma.h ****     return ((void *) DW_DESCR_DST(base));
 678:Generated_Source\PSoC6\pdl\drivers/peripheral/dma/cy_dma.h **** }
 679:Generated_Source\PSoC6\pdl\drivers/peripheral/dma/cy_dma.h **** 
 680:Generated_Source\PSoC6\pdl\drivers/peripheral/dma/cy_dma.h **** /** \} group_dma_block_functions */
 681:Generated_Source\PSoC6\pdl\drivers/peripheral/dma/cy_dma.h **** 
 682:Generated_Source\PSoC6\pdl\drivers/peripheral/dma/cy_dma.h **** /**
 683:Generated_Source\PSoC6\pdl\drivers/peripheral/dma/cy_dma.h **** * \addtogroup group_dma_descriptor_functions
 684:Generated_Source\PSoC6\pdl\drivers/peripheral/dma/cy_dma.h **** * \{
 685:Generated_Source\PSoC6\pdl\drivers/peripheral/dma/cy_dma.h **** */
 686:Generated_Source\PSoC6\pdl\drivers/peripheral/dma/cy_dma.h **** 
 687:Generated_Source\PSoC6\pdl\drivers/peripheral/dma/cy_dma.h **** 
 688:Generated_Source\PSoC6\pdl\drivers/peripheral/dma/cy_dma.h **** /*******************************************************************************
 689:Generated_Source\PSoC6\pdl\drivers/peripheral/dma/cy_dma.h **** * Function Name: Cy_DMA_Descriptor_SetSrcAddress
 690:Generated_Source\PSoC6\pdl\drivers/peripheral/dma/cy_dma.h **** ****************************************************************************//**
 691:Generated_Source\PSoC6\pdl\drivers/peripheral/dma/cy_dma.h **** *
 692:Generated_Source\PSoC6\pdl\drivers/peripheral/dma/cy_dma.h **** * Sets the source address for the specified descriptor.
 693:Generated_Source\PSoC6\pdl\drivers/peripheral/dma/cy_dma.h **** *
 694:Generated_Source\PSoC6\pdl\drivers/peripheral/dma/cy_dma.h **** * \param descriptor
 695:Generated_Source\PSoC6\pdl\drivers/peripheral/dma/cy_dma.h **** * The descriptor structure instance declared by the user/component.
 696:Generated_Source\PSoC6\pdl\drivers/peripheral/dma/cy_dma.h **** *
 697:Generated_Source\PSoC6\pdl\drivers/peripheral/dma/cy_dma.h **** * \param srcAddress
 698:Generated_Source\PSoC6\pdl\drivers/peripheral/dma/cy_dma.h **** * The source address value for the descriptor.
 699:Generated_Source\PSoC6\pdl\drivers/peripheral/dma/cy_dma.h **** *
 700:Generated_Source\PSoC6\pdl\drivers/peripheral/dma/cy_dma.h **** * \funcusage 
 701:Generated_Source\PSoC6\pdl\drivers/peripheral/dma/cy_dma.h **** * \snippet dma\2.10\snippet\main.c snippet_Cy_DMA_Descriptor_SetterFunctions
 702:Generated_Source\PSoC6\pdl\drivers/peripheral/dma/cy_dma.h **** *
 703:Generated_Source\PSoC6\pdl\drivers/peripheral/dma/cy_dma.h **** *******************************************************************************/
ARM GAS  C:\Users\stijn\AppData\Local\Temp\cc6b5yFd.s 			page 14


 704:Generated_Source\PSoC6\pdl\drivers/peripheral/dma/cy_dma.h **** __STATIC_INLINE void Cy_DMA_Descriptor_SetSrcAddress(cy_stc_dma_descriptor_t * descriptor, void con
 705:Generated_Source\PSoC6\pdl\drivers/peripheral/dma/cy_dma.h **** {
 706:Generated_Source\PSoC6\pdl\drivers/peripheral/dma/cy_dma.h ****     descriptor->src = (uint32_t) srcAddress;
 707:Generated_Source\PSoC6\pdl\drivers/peripheral/dma/cy_dma.h **** }
 708:Generated_Source\PSoC6\pdl\drivers/peripheral/dma/cy_dma.h **** 
 709:Generated_Source\PSoC6\pdl\drivers/peripheral/dma/cy_dma.h **** 
 710:Generated_Source\PSoC6\pdl\drivers/peripheral/dma/cy_dma.h **** /*******************************************************************************
 711:Generated_Source\PSoC6\pdl\drivers/peripheral/dma/cy_dma.h **** * Function Name: Cy_DMA_Descriptor_GetSrcAddress
 712:Generated_Source\PSoC6\pdl\drivers/peripheral/dma/cy_dma.h **** ****************************************************************************//**
 713:Generated_Source\PSoC6\pdl\drivers/peripheral/dma/cy_dma.h **** *
 714:Generated_Source\PSoC6\pdl\drivers/peripheral/dma/cy_dma.h **** * Returns the source address parameter of the specified descriptor.
 715:Generated_Source\PSoC6\pdl\drivers/peripheral/dma/cy_dma.h **** * 
 716:Generated_Source\PSoC6\pdl\drivers/peripheral/dma/cy_dma.h **** * \param descriptor
 717:Generated_Source\PSoC6\pdl\drivers/peripheral/dma/cy_dma.h **** * The descriptor structure instance declared by the user/component.
 718:Generated_Source\PSoC6\pdl\drivers/peripheral/dma/cy_dma.h **** *
 719:Generated_Source\PSoC6\pdl\drivers/peripheral/dma/cy_dma.h **** * \return
 720:Generated_Source\PSoC6\pdl\drivers/peripheral/dma/cy_dma.h **** * The source address value of the descriptor.
 721:Generated_Source\PSoC6\pdl\drivers/peripheral/dma/cy_dma.h **** *
 722:Generated_Source\PSoC6\pdl\drivers/peripheral/dma/cy_dma.h **** * \funcusage 
 723:Generated_Source\PSoC6\pdl\drivers/peripheral/dma/cy_dma.h **** * \snippet dma\2.10\snippet\main.c snippet_Cy_DMA_Descriptor_GetterFunctions
 724:Generated_Source\PSoC6\pdl\drivers/peripheral/dma/cy_dma.h **** *
 725:Generated_Source\PSoC6\pdl\drivers/peripheral/dma/cy_dma.h **** *******************************************************************************/
 726:Generated_Source\PSoC6\pdl\drivers/peripheral/dma/cy_dma.h **** __STATIC_INLINE void * Cy_DMA_Descriptor_GetSrcAddress(cy_stc_dma_descriptor_t const * descriptor)
 727:Generated_Source\PSoC6\pdl\drivers/peripheral/dma/cy_dma.h **** {
 728:Generated_Source\PSoC6\pdl\drivers/peripheral/dma/cy_dma.h ****     return ((void *) descriptor->src);
 729:Generated_Source\PSoC6\pdl\drivers/peripheral/dma/cy_dma.h **** }
 730:Generated_Source\PSoC6\pdl\drivers/peripheral/dma/cy_dma.h **** 
 731:Generated_Source\PSoC6\pdl\drivers/peripheral/dma/cy_dma.h **** 
 732:Generated_Source\PSoC6\pdl\drivers/peripheral/dma/cy_dma.h **** /*******************************************************************************
 733:Generated_Source\PSoC6\pdl\drivers/peripheral/dma/cy_dma.h **** * Function Name: Cy_DMA_Descriptor_SetDstAddress
 734:Generated_Source\PSoC6\pdl\drivers/peripheral/dma/cy_dma.h **** ****************************************************************************//**
 735:Generated_Source\PSoC6\pdl\drivers/peripheral/dma/cy_dma.h **** *
 736:Generated_Source\PSoC6\pdl\drivers/peripheral/dma/cy_dma.h **** * Sets the destination address for the specified descriptor.
 737:Generated_Source\PSoC6\pdl\drivers/peripheral/dma/cy_dma.h **** *
 738:Generated_Source\PSoC6\pdl\drivers/peripheral/dma/cy_dma.h **** * \param descriptor
 739:Generated_Source\PSoC6\pdl\drivers/peripheral/dma/cy_dma.h **** * The descriptor structure instance declared by the user/component.
 740:Generated_Source\PSoC6\pdl\drivers/peripheral/dma/cy_dma.h **** *
 741:Generated_Source\PSoC6\pdl\drivers/peripheral/dma/cy_dma.h **** * \param dstAddress
 742:Generated_Source\PSoC6\pdl\drivers/peripheral/dma/cy_dma.h **** * The destination address value for the descriptor.
 743:Generated_Source\PSoC6\pdl\drivers/peripheral/dma/cy_dma.h **** *
 744:Generated_Source\PSoC6\pdl\drivers/peripheral/dma/cy_dma.h **** * \funcusage 
 745:Generated_Source\PSoC6\pdl\drivers/peripheral/dma/cy_dma.h **** * \snippet dma\2.10\snippet\main.c snippet_Cy_DMA_Descriptor_SetterFunctions
 746:Generated_Source\PSoC6\pdl\drivers/peripheral/dma/cy_dma.h **** *
 747:Generated_Source\PSoC6\pdl\drivers/peripheral/dma/cy_dma.h **** *******************************************************************************/
 748:Generated_Source\PSoC6\pdl\drivers/peripheral/dma/cy_dma.h **** __STATIC_INLINE void Cy_DMA_Descriptor_SetDstAddress(cy_stc_dma_descriptor_t * descriptor, void con
 749:Generated_Source\PSoC6\pdl\drivers/peripheral/dma/cy_dma.h **** {
 750:Generated_Source\PSoC6\pdl\drivers/peripheral/dma/cy_dma.h ****     descriptor->dst = (uint32_t) dstAddress;
 751:Generated_Source\PSoC6\pdl\drivers/peripheral/dma/cy_dma.h **** }
 752:Generated_Source\PSoC6\pdl\drivers/peripheral/dma/cy_dma.h **** 
 753:Generated_Source\PSoC6\pdl\drivers/peripheral/dma/cy_dma.h **** 
 754:Generated_Source\PSoC6\pdl\drivers/peripheral/dma/cy_dma.h **** /*******************************************************************************
 755:Generated_Source\PSoC6\pdl\drivers/peripheral/dma/cy_dma.h **** * Function Name: Cy_DMA_Descriptor_GetDstAddress
 756:Generated_Source\PSoC6\pdl\drivers/peripheral/dma/cy_dma.h **** ****************************************************************************//**
 757:Generated_Source\PSoC6\pdl\drivers/peripheral/dma/cy_dma.h **** *
 758:Generated_Source\PSoC6\pdl\drivers/peripheral/dma/cy_dma.h **** * Returns the destination address parameter of the specified descriptor.
 759:Generated_Source\PSoC6\pdl\drivers/peripheral/dma/cy_dma.h **** * 
 760:Generated_Source\PSoC6\pdl\drivers/peripheral/dma/cy_dma.h **** * \param descriptor
ARM GAS  C:\Users\stijn\AppData\Local\Temp\cc6b5yFd.s 			page 15


 761:Generated_Source\PSoC6\pdl\drivers/peripheral/dma/cy_dma.h **** * The descriptor structure instance declared by the user/component.
 762:Generated_Source\PSoC6\pdl\drivers/peripheral/dma/cy_dma.h **** *
 763:Generated_Source\PSoC6\pdl\drivers/peripheral/dma/cy_dma.h **** * \return
 764:Generated_Source\PSoC6\pdl\drivers/peripheral/dma/cy_dma.h **** * The destination address value of the descriptor.
 765:Generated_Source\PSoC6\pdl\drivers/peripheral/dma/cy_dma.h **** *
 766:Generated_Source\PSoC6\pdl\drivers/peripheral/dma/cy_dma.h **** * \funcusage 
 767:Generated_Source\PSoC6\pdl\drivers/peripheral/dma/cy_dma.h **** * \snippet dma\2.10\snippet\main.c snippet_Cy_DMA_Descriptor_GetterFunctions
 768:Generated_Source\PSoC6\pdl\drivers/peripheral/dma/cy_dma.h **** *
 769:Generated_Source\PSoC6\pdl\drivers/peripheral/dma/cy_dma.h **** *******************************************************************************/
 770:Generated_Source\PSoC6\pdl\drivers/peripheral/dma/cy_dma.h **** __STATIC_INLINE void * Cy_DMA_Descriptor_GetDstAddress(cy_stc_dma_descriptor_t const * descriptor)
 771:Generated_Source\PSoC6\pdl\drivers/peripheral/dma/cy_dma.h **** {
 772:Generated_Source\PSoC6\pdl\drivers/peripheral/dma/cy_dma.h ****     return ((void *) descriptor->dst);
 773:Generated_Source\PSoC6\pdl\drivers/peripheral/dma/cy_dma.h **** }
 774:Generated_Source\PSoC6\pdl\drivers/peripheral/dma/cy_dma.h **** 
 775:Generated_Source\PSoC6\pdl\drivers/peripheral/dma/cy_dma.h **** 
 776:Generated_Source\PSoC6\pdl\drivers/peripheral/dma/cy_dma.h **** /*******************************************************************************
 777:Generated_Source\PSoC6\pdl\drivers/peripheral/dma/cy_dma.h **** * Function Name: Cy_DMA_Descriptor_SetInterruptType
 778:Generated_Source\PSoC6\pdl\drivers/peripheral/dma/cy_dma.h **** ****************************************************************************//**
 779:Generated_Source\PSoC6\pdl\drivers/peripheral/dma/cy_dma.h **** *
 780:Generated_Source\PSoC6\pdl\drivers/peripheral/dma/cy_dma.h **** * Sets the interrupt type for the specified descriptor.
 781:Generated_Source\PSoC6\pdl\drivers/peripheral/dma/cy_dma.h **** *
 782:Generated_Source\PSoC6\pdl\drivers/peripheral/dma/cy_dma.h **** * \param descriptor
 783:Generated_Source\PSoC6\pdl\drivers/peripheral/dma/cy_dma.h **** * The descriptor structure instance declared by the user/component.
 784:Generated_Source\PSoC6\pdl\drivers/peripheral/dma/cy_dma.h **** *
 785:Generated_Source\PSoC6\pdl\drivers/peripheral/dma/cy_dma.h **** * \param interruptType
 786:Generated_Source\PSoC6\pdl\drivers/peripheral/dma/cy_dma.h **** * The interrupt type set for the descriptor. \ref cy_en_dma_trigger_type_t
 787:Generated_Source\PSoC6\pdl\drivers/peripheral/dma/cy_dma.h **** *
 788:Generated_Source\PSoC6\pdl\drivers/peripheral/dma/cy_dma.h **** * \funcusage 
 789:Generated_Source\PSoC6\pdl\drivers/peripheral/dma/cy_dma.h **** * \snippet dma\2.10\snippet\main.c snippet_Cy_DMA_Descriptor_SetterFunctions
 790:Generated_Source\PSoC6\pdl\drivers/peripheral/dma/cy_dma.h **** *
 791:Generated_Source\PSoC6\pdl\drivers/peripheral/dma/cy_dma.h **** *******************************************************************************/
 792:Generated_Source\PSoC6\pdl\drivers/peripheral/dma/cy_dma.h **** __STATIC_INLINE void Cy_DMA_Descriptor_SetInterruptType(cy_stc_dma_descriptor_t * descriptor, cy_en
 793:Generated_Source\PSoC6\pdl\drivers/peripheral/dma/cy_dma.h **** {
 794:Generated_Source\PSoC6\pdl\drivers/peripheral/dma/cy_dma.h ****     CY_ASSERT_L3(CY_DMA_IS_TRIG_TYPE_VALID(interruptType));
 795:Generated_Source\PSoC6\pdl\drivers/peripheral/dma/cy_dma.h ****     
 796:Generated_Source\PSoC6\pdl\drivers/peripheral/dma/cy_dma.h ****     CY_REG32_CLR_SET(descriptor->ctl, CY_DMA_CTL_INTR_TYPE, interruptType);
 797:Generated_Source\PSoC6\pdl\drivers/peripheral/dma/cy_dma.h **** }
 798:Generated_Source\PSoC6\pdl\drivers/peripheral/dma/cy_dma.h **** 
 799:Generated_Source\PSoC6\pdl\drivers/peripheral/dma/cy_dma.h **** 
 800:Generated_Source\PSoC6\pdl\drivers/peripheral/dma/cy_dma.h **** /*******************************************************************************
 801:Generated_Source\PSoC6\pdl\drivers/peripheral/dma/cy_dma.h **** * Function Name: Cy_DMA_Descriptor_GetInterruptType
 802:Generated_Source\PSoC6\pdl\drivers/peripheral/dma/cy_dma.h **** ****************************************************************************//**
 803:Generated_Source\PSoC6\pdl\drivers/peripheral/dma/cy_dma.h **** *
 804:Generated_Source\PSoC6\pdl\drivers/peripheral/dma/cy_dma.h **** * Returns the Interrupt-Type of the specified descriptor.
 805:Generated_Source\PSoC6\pdl\drivers/peripheral/dma/cy_dma.h **** *
 806:Generated_Source\PSoC6\pdl\drivers/peripheral/dma/cy_dma.h **** * \param descriptor
 807:Generated_Source\PSoC6\pdl\drivers/peripheral/dma/cy_dma.h **** * The descriptor structure instance declared by the user/component.
 808:Generated_Source\PSoC6\pdl\drivers/peripheral/dma/cy_dma.h **** *
 809:Generated_Source\PSoC6\pdl\drivers/peripheral/dma/cy_dma.h **** * \return
 810:Generated_Source\PSoC6\pdl\drivers/peripheral/dma/cy_dma.h **** * The Interrupt-Type \ref cy_en_dma_trigger_type_t.
 811:Generated_Source\PSoC6\pdl\drivers/peripheral/dma/cy_dma.h **** *
 812:Generated_Source\PSoC6\pdl\drivers/peripheral/dma/cy_dma.h **** * \funcusage 
 813:Generated_Source\PSoC6\pdl\drivers/peripheral/dma/cy_dma.h **** * \snippet dma\2.10\snippet\main.c snippet_Cy_DMA_Descriptor_GetterFunctions
 814:Generated_Source\PSoC6\pdl\drivers/peripheral/dma/cy_dma.h **** *  
 815:Generated_Source\PSoC6\pdl\drivers/peripheral/dma/cy_dma.h **** *******************************************************************************/
 816:Generated_Source\PSoC6\pdl\drivers/peripheral/dma/cy_dma.h **** __STATIC_INLINE cy_en_dma_trigger_type_t Cy_DMA_Descriptor_GetInterruptType(cy_stc_dma_descriptor_t
 817:Generated_Source\PSoC6\pdl\drivers/peripheral/dma/cy_dma.h **** {
ARM GAS  C:\Users\stijn\AppData\Local\Temp\cc6b5yFd.s 			page 16


 818:Generated_Source\PSoC6\pdl\drivers/peripheral/dma/cy_dma.h ****     return((cy_en_dma_trigger_type_t) _FLD2VAL(CY_DMA_CTL_INTR_TYPE, descriptor->ctl));
 819:Generated_Source\PSoC6\pdl\drivers/peripheral/dma/cy_dma.h **** }
 820:Generated_Source\PSoC6\pdl\drivers/peripheral/dma/cy_dma.h **** 
 821:Generated_Source\PSoC6\pdl\drivers/peripheral/dma/cy_dma.h **** 
 822:Generated_Source\PSoC6\pdl\drivers/peripheral/dma/cy_dma.h **** /*******************************************************************************
 823:Generated_Source\PSoC6\pdl\drivers/peripheral/dma/cy_dma.h **** * Function Name: Cy_DMA_Descriptor_SetTriggerInType
 824:Generated_Source\PSoC6\pdl\drivers/peripheral/dma/cy_dma.h **** ****************************************************************************//**
 825:Generated_Source\PSoC6\pdl\drivers/peripheral/dma/cy_dma.h **** *
 826:Generated_Source\PSoC6\pdl\drivers/peripheral/dma/cy_dma.h **** * Sets the Trigger-In-Type for the specified descriptor.
 827:Generated_Source\PSoC6\pdl\drivers/peripheral/dma/cy_dma.h **** *
 828:Generated_Source\PSoC6\pdl\drivers/peripheral/dma/cy_dma.h **** * \param descriptor
 829:Generated_Source\PSoC6\pdl\drivers/peripheral/dma/cy_dma.h **** * The descriptor structure instance declared by the user/component.
 830:Generated_Source\PSoC6\pdl\drivers/peripheral/dma/cy_dma.h **** *
 831:Generated_Source\PSoC6\pdl\drivers/peripheral/dma/cy_dma.h **** * \param triggerInType
 832:Generated_Source\PSoC6\pdl\drivers/peripheral/dma/cy_dma.h **** * The Trigger In Type parameter \ref cy_en_dma_trigger_type_t
 833:Generated_Source\PSoC6\pdl\drivers/peripheral/dma/cy_dma.h **** *
 834:Generated_Source\PSoC6\pdl\drivers/peripheral/dma/cy_dma.h **** * \funcusage 
 835:Generated_Source\PSoC6\pdl\drivers/peripheral/dma/cy_dma.h **** * \snippet dma\2.10\snippet\main.c snippet_Cy_DMA_Descriptor_SetterFunctions
 836:Generated_Source\PSoC6\pdl\drivers/peripheral/dma/cy_dma.h **** *
 837:Generated_Source\PSoC6\pdl\drivers/peripheral/dma/cy_dma.h **** *******************************************************************************/
 838:Generated_Source\PSoC6\pdl\drivers/peripheral/dma/cy_dma.h **** __STATIC_INLINE void Cy_DMA_Descriptor_SetTriggerInType(cy_stc_dma_descriptor_t * descriptor, cy_en
 839:Generated_Source\PSoC6\pdl\drivers/peripheral/dma/cy_dma.h **** {
 840:Generated_Source\PSoC6\pdl\drivers/peripheral/dma/cy_dma.h ****     CY_ASSERT_L3(CY_DMA_IS_TRIG_TYPE_VALID(triggerInType));
 841:Generated_Source\PSoC6\pdl\drivers/peripheral/dma/cy_dma.h ****     
 842:Generated_Source\PSoC6\pdl\drivers/peripheral/dma/cy_dma.h ****     CY_REG32_CLR_SET(descriptor->ctl, CY_DMA_CTL_TR_IN_TYPE, triggerInType);
 843:Generated_Source\PSoC6\pdl\drivers/peripheral/dma/cy_dma.h **** }
 844:Generated_Source\PSoC6\pdl\drivers/peripheral/dma/cy_dma.h **** 
 845:Generated_Source\PSoC6\pdl\drivers/peripheral/dma/cy_dma.h **** 
 846:Generated_Source\PSoC6\pdl\drivers/peripheral/dma/cy_dma.h **** /*******************************************************************************
 847:Generated_Source\PSoC6\pdl\drivers/peripheral/dma/cy_dma.h **** * Function Name: Cy_DMA_Descriptor_GetTriggerInType
 848:Generated_Source\PSoC6\pdl\drivers/peripheral/dma/cy_dma.h **** ****************************************************************************//**
 849:Generated_Source\PSoC6\pdl\drivers/peripheral/dma/cy_dma.h **** *
 850:Generated_Source\PSoC6\pdl\drivers/peripheral/dma/cy_dma.h **** * Returns the Trigger-In-Type parameter of the specified descriptor.
 851:Generated_Source\PSoC6\pdl\drivers/peripheral/dma/cy_dma.h **** *
 852:Generated_Source\PSoC6\pdl\drivers/peripheral/dma/cy_dma.h **** * \param descriptor
 853:Generated_Source\PSoC6\pdl\drivers/peripheral/dma/cy_dma.h **** * The descriptor structure instance declared by the user/component.
 854:Generated_Source\PSoC6\pdl\drivers/peripheral/dma/cy_dma.h **** *
 855:Generated_Source\PSoC6\pdl\drivers/peripheral/dma/cy_dma.h **** * \return
 856:Generated_Source\PSoC6\pdl\drivers/peripheral/dma/cy_dma.h **** * The Trigger-In-Type \ref cy_en_dma_trigger_type_t
 857:Generated_Source\PSoC6\pdl\drivers/peripheral/dma/cy_dma.h **** *
 858:Generated_Source\PSoC6\pdl\drivers/peripheral/dma/cy_dma.h **** * \funcusage 
 859:Generated_Source\PSoC6\pdl\drivers/peripheral/dma/cy_dma.h **** * \snippet dma\2.10\snippet\main.c snippet_Cy_DMA_Descriptor_GetterFunctions
 860:Generated_Source\PSoC6\pdl\drivers/peripheral/dma/cy_dma.h **** *  
 861:Generated_Source\PSoC6\pdl\drivers/peripheral/dma/cy_dma.h **** *******************************************************************************/
 862:Generated_Source\PSoC6\pdl\drivers/peripheral/dma/cy_dma.h **** __STATIC_INLINE cy_en_dma_trigger_type_t Cy_DMA_Descriptor_GetTriggerInType(cy_stc_dma_descriptor_t
 863:Generated_Source\PSoC6\pdl\drivers/peripheral/dma/cy_dma.h **** {
 864:Generated_Source\PSoC6\pdl\drivers/peripheral/dma/cy_dma.h ****     return((cy_en_dma_trigger_type_t) _FLD2VAL(CY_DMA_CTL_TR_IN_TYPE, descriptor->ctl));
 865:Generated_Source\PSoC6\pdl\drivers/peripheral/dma/cy_dma.h **** }
 866:Generated_Source\PSoC6\pdl\drivers/peripheral/dma/cy_dma.h **** 
 867:Generated_Source\PSoC6\pdl\drivers/peripheral/dma/cy_dma.h **** 
 868:Generated_Source\PSoC6\pdl\drivers/peripheral/dma/cy_dma.h **** /*******************************************************************************
 869:Generated_Source\PSoC6\pdl\drivers/peripheral/dma/cy_dma.h **** * Function Name: Cy_DMA_Descriptor_SetTriggerOutType
 870:Generated_Source\PSoC6\pdl\drivers/peripheral/dma/cy_dma.h **** ****************************************************************************//**
 871:Generated_Source\PSoC6\pdl\drivers/peripheral/dma/cy_dma.h **** *
 872:Generated_Source\PSoC6\pdl\drivers/peripheral/dma/cy_dma.h **** * Sets the Trigger-Out-Type for the specified descriptor.
 873:Generated_Source\PSoC6\pdl\drivers/peripheral/dma/cy_dma.h **** *
 874:Generated_Source\PSoC6\pdl\drivers/peripheral/dma/cy_dma.h **** * \param descriptor
ARM GAS  C:\Users\stijn\AppData\Local\Temp\cc6b5yFd.s 			page 17


 875:Generated_Source\PSoC6\pdl\drivers/peripheral/dma/cy_dma.h **** * The descriptor structure instance declared by the user/component.
 876:Generated_Source\PSoC6\pdl\drivers/peripheral/dma/cy_dma.h **** *
 877:Generated_Source\PSoC6\pdl\drivers/peripheral/dma/cy_dma.h **** * \param triggerOutType
 878:Generated_Source\PSoC6\pdl\drivers/peripheral/dma/cy_dma.h **** * The Trigger-Out-Type set for the descriptor. \ref cy_en_dma_trigger_type_t
 879:Generated_Source\PSoC6\pdl\drivers/peripheral/dma/cy_dma.h **** *
 880:Generated_Source\PSoC6\pdl\drivers/peripheral/dma/cy_dma.h **** * \funcusage 
 881:Generated_Source\PSoC6\pdl\drivers/peripheral/dma/cy_dma.h **** * \snippet dma\2.10\snippet\main.c snippet_Cy_DMA_Descriptor_SetterFunctions
 882:Generated_Source\PSoC6\pdl\drivers/peripheral/dma/cy_dma.h **** *
 883:Generated_Source\PSoC6\pdl\drivers/peripheral/dma/cy_dma.h **** *******************************************************************************/
 884:Generated_Source\PSoC6\pdl\drivers/peripheral/dma/cy_dma.h **** __STATIC_INLINE void Cy_DMA_Descriptor_SetTriggerOutType(cy_stc_dma_descriptor_t * descriptor, cy_e
 885:Generated_Source\PSoC6\pdl\drivers/peripheral/dma/cy_dma.h **** {
 886:Generated_Source\PSoC6\pdl\drivers/peripheral/dma/cy_dma.h ****     CY_ASSERT_L3(CY_DMA_IS_TRIG_TYPE_VALID(triggerOutType));
 887:Generated_Source\PSoC6\pdl\drivers/peripheral/dma/cy_dma.h ****     
 888:Generated_Source\PSoC6\pdl\drivers/peripheral/dma/cy_dma.h ****     CY_REG32_CLR_SET(descriptor->ctl, CY_DMA_CTL_TR_OUT_TYPE, triggerOutType);
 889:Generated_Source\PSoC6\pdl\drivers/peripheral/dma/cy_dma.h **** }
 890:Generated_Source\PSoC6\pdl\drivers/peripheral/dma/cy_dma.h **** 
 891:Generated_Source\PSoC6\pdl\drivers/peripheral/dma/cy_dma.h **** 
 892:Generated_Source\PSoC6\pdl\drivers/peripheral/dma/cy_dma.h **** /*******************************************************************************
 893:Generated_Source\PSoC6\pdl\drivers/peripheral/dma/cy_dma.h **** * Function Name: Cy_DMA_Descriptor_GetTriggerOutType
 894:Generated_Source\PSoC6\pdl\drivers/peripheral/dma/cy_dma.h **** ****************************************************************************//**
 895:Generated_Source\PSoC6\pdl\drivers/peripheral/dma/cy_dma.h **** *
 896:Generated_Source\PSoC6\pdl\drivers/peripheral/dma/cy_dma.h **** * Returns the Trigger-Out-Type parameter of the specified descriptor.
 897:Generated_Source\PSoC6\pdl\drivers/peripheral/dma/cy_dma.h **** *
 898:Generated_Source\PSoC6\pdl\drivers/peripheral/dma/cy_dma.h **** * \param descriptor
 899:Generated_Source\PSoC6\pdl\drivers/peripheral/dma/cy_dma.h **** * The descriptor structure instance declared by the user/component.
 900:Generated_Source\PSoC6\pdl\drivers/peripheral/dma/cy_dma.h **** *
 901:Generated_Source\PSoC6\pdl\drivers/peripheral/dma/cy_dma.h **** * \return
 902:Generated_Source\PSoC6\pdl\drivers/peripheral/dma/cy_dma.h **** * The Trigger-Out-Type parameter \ref cy_en_dma_trigger_type_t.
 903:Generated_Source\PSoC6\pdl\drivers/peripheral/dma/cy_dma.h **** *
 904:Generated_Source\PSoC6\pdl\drivers/peripheral/dma/cy_dma.h **** * \funcusage 
 905:Generated_Source\PSoC6\pdl\drivers/peripheral/dma/cy_dma.h **** * \snippet dma\2.10\snippet\main.c snippet_Cy_DMA_Descriptor_GetterFunctions
 906:Generated_Source\PSoC6\pdl\drivers/peripheral/dma/cy_dma.h **** *  
 907:Generated_Source\PSoC6\pdl\drivers/peripheral/dma/cy_dma.h **** *******************************************************************************/
 908:Generated_Source\PSoC6\pdl\drivers/peripheral/dma/cy_dma.h **** __STATIC_INLINE cy_en_dma_trigger_type_t Cy_DMA_Descriptor_GetTriggerOutType(cy_stc_dma_descriptor_
 909:Generated_Source\PSoC6\pdl\drivers/peripheral/dma/cy_dma.h **** {
 910:Generated_Source\PSoC6\pdl\drivers/peripheral/dma/cy_dma.h ****     return((cy_en_dma_trigger_type_t) _FLD2VAL(CY_DMA_CTL_TR_OUT_TYPE, descriptor->ctl));
 911:Generated_Source\PSoC6\pdl\drivers/peripheral/dma/cy_dma.h **** }
 912:Generated_Source\PSoC6\pdl\drivers/peripheral/dma/cy_dma.h **** 
 913:Generated_Source\PSoC6\pdl\drivers/peripheral/dma/cy_dma.h **** 
 914:Generated_Source\PSoC6\pdl\drivers/peripheral/dma/cy_dma.h **** /*******************************************************************************
 915:Generated_Source\PSoC6\pdl\drivers/peripheral/dma/cy_dma.h **** * Function Name: Cy_DMA_Descriptor_SetDataSize
 916:Generated_Source\PSoC6\pdl\drivers/peripheral/dma/cy_dma.h **** ****************************************************************************//**
 917:Generated_Source\PSoC6\pdl\drivers/peripheral/dma/cy_dma.h **** *
 918:Generated_Source\PSoC6\pdl\drivers/peripheral/dma/cy_dma.h **** * Sets the Data Element Size for the specified descriptor.
 919:Generated_Source\PSoC6\pdl\drivers/peripheral/dma/cy_dma.h **** *
 920:Generated_Source\PSoC6\pdl\drivers/peripheral/dma/cy_dma.h **** * \param descriptor
 921:Generated_Source\PSoC6\pdl\drivers/peripheral/dma/cy_dma.h **** * The descriptor structure instance declared by the user/component.
 922:Generated_Source\PSoC6\pdl\drivers/peripheral/dma/cy_dma.h **** *
 923:Generated_Source\PSoC6\pdl\drivers/peripheral/dma/cy_dma.h **** * \param dataSize
 924:Generated_Source\PSoC6\pdl\drivers/peripheral/dma/cy_dma.h **** * The Data Element Size \ref cy_en_dma_data_size_t
 925:Generated_Source\PSoC6\pdl\drivers/peripheral/dma/cy_dma.h **** *
 926:Generated_Source\PSoC6\pdl\drivers/peripheral/dma/cy_dma.h **** * \funcusage 
 927:Generated_Source\PSoC6\pdl\drivers/peripheral/dma/cy_dma.h **** * \snippet dma\2.10\snippet\main.c snippet_Cy_DMA_Descriptor_SetterFunctions
 928:Generated_Source\PSoC6\pdl\drivers/peripheral/dma/cy_dma.h **** *  
 929:Generated_Source\PSoC6\pdl\drivers/peripheral/dma/cy_dma.h **** *******************************************************************************/
 930:Generated_Source\PSoC6\pdl\drivers/peripheral/dma/cy_dma.h **** __STATIC_INLINE void Cy_DMA_Descriptor_SetDataSize(cy_stc_dma_descriptor_t * descriptor, cy_en_dma_
 931:Generated_Source\PSoC6\pdl\drivers/peripheral/dma/cy_dma.h **** {
ARM GAS  C:\Users\stijn\AppData\Local\Temp\cc6b5yFd.s 			page 18


 932:Generated_Source\PSoC6\pdl\drivers/peripheral/dma/cy_dma.h ****     CY_ASSERT_L3(CY_DMA_IS_DATA_SIZE_VALID(dataSize));
 933:Generated_Source\PSoC6\pdl\drivers/peripheral/dma/cy_dma.h ****     
 934:Generated_Source\PSoC6\pdl\drivers/peripheral/dma/cy_dma.h ****     CY_REG32_CLR_SET(descriptor->ctl, CY_DMA_CTL_DATA_SIZE, dataSize);
 935:Generated_Source\PSoC6\pdl\drivers/peripheral/dma/cy_dma.h **** }
 936:Generated_Source\PSoC6\pdl\drivers/peripheral/dma/cy_dma.h **** 
 937:Generated_Source\PSoC6\pdl\drivers/peripheral/dma/cy_dma.h **** 
 938:Generated_Source\PSoC6\pdl\drivers/peripheral/dma/cy_dma.h **** /*******************************************************************************
 939:Generated_Source\PSoC6\pdl\drivers/peripheral/dma/cy_dma.h **** * Function Name: Cy_DMA_Descriptor_GetDataSize
 940:Generated_Source\PSoC6\pdl\drivers/peripheral/dma/cy_dma.h **** ****************************************************************************//**
 941:Generated_Source\PSoC6\pdl\drivers/peripheral/dma/cy_dma.h **** *
 942:Generated_Source\PSoC6\pdl\drivers/peripheral/dma/cy_dma.h **** * Returns the Data Element Size parameter of the specified descriptor.
 943:Generated_Source\PSoC6\pdl\drivers/peripheral/dma/cy_dma.h **** *
 944:Generated_Source\PSoC6\pdl\drivers/peripheral/dma/cy_dma.h **** * \param descriptor
 945:Generated_Source\PSoC6\pdl\drivers/peripheral/dma/cy_dma.h **** * The descriptor structure instance declared by the user/component.
 946:Generated_Source\PSoC6\pdl\drivers/peripheral/dma/cy_dma.h **** *
 947:Generated_Source\PSoC6\pdl\drivers/peripheral/dma/cy_dma.h **** * \return
 948:Generated_Source\PSoC6\pdl\drivers/peripheral/dma/cy_dma.h **** * The Data Element Size \ref cy_en_dma_data_size_t.
 949:Generated_Source\PSoC6\pdl\drivers/peripheral/dma/cy_dma.h **** *
 950:Generated_Source\PSoC6\pdl\drivers/peripheral/dma/cy_dma.h **** * \funcusage 
 951:Generated_Source\PSoC6\pdl\drivers/peripheral/dma/cy_dma.h **** * \snippet dma\2.10\snippet\main.c snippet_Cy_DMA_Descriptor_GetterFunctions
 952:Generated_Source\PSoC6\pdl\drivers/peripheral/dma/cy_dma.h **** *  
 953:Generated_Source\PSoC6\pdl\drivers/peripheral/dma/cy_dma.h **** *******************************************************************************/
 954:Generated_Source\PSoC6\pdl\drivers/peripheral/dma/cy_dma.h **** __STATIC_INLINE cy_en_dma_data_size_t Cy_DMA_Descriptor_GetDataSize(cy_stc_dma_descriptor_t const *
 955:Generated_Source\PSoC6\pdl\drivers/peripheral/dma/cy_dma.h **** {
 956:Generated_Source\PSoC6\pdl\drivers/peripheral/dma/cy_dma.h ****     return((cy_en_dma_data_size_t) _FLD2VAL(CY_DMA_CTL_DATA_SIZE, descriptor->ctl));
 957:Generated_Source\PSoC6\pdl\drivers/peripheral/dma/cy_dma.h **** }
 958:Generated_Source\PSoC6\pdl\drivers/peripheral/dma/cy_dma.h **** 
 959:Generated_Source\PSoC6\pdl\drivers/peripheral/dma/cy_dma.h **** 
 960:Generated_Source\PSoC6\pdl\drivers/peripheral/dma/cy_dma.h **** /*******************************************************************************
 961:Generated_Source\PSoC6\pdl\drivers/peripheral/dma/cy_dma.h **** * Function Name: Cy_DMA_Descriptor_SetSrcTransferSize
 962:Generated_Source\PSoC6\pdl\drivers/peripheral/dma/cy_dma.h **** ****************************************************************************//**
 963:Generated_Source\PSoC6\pdl\drivers/peripheral/dma/cy_dma.h **** *
 964:Generated_Source\PSoC6\pdl\drivers/peripheral/dma/cy_dma.h **** * Sets the Source Transfer Size for the specified descriptor.
 965:Generated_Source\PSoC6\pdl\drivers/peripheral/dma/cy_dma.h **** *
 966:Generated_Source\PSoC6\pdl\drivers/peripheral/dma/cy_dma.h **** * \param descriptor
 967:Generated_Source\PSoC6\pdl\drivers/peripheral/dma/cy_dma.h **** * The descriptor structure instance declared by the user/component.
 968:Generated_Source\PSoC6\pdl\drivers/peripheral/dma/cy_dma.h **** *
 969:Generated_Source\PSoC6\pdl\drivers/peripheral/dma/cy_dma.h **** * \param srcTransferSize
 970:Generated_Source\PSoC6\pdl\drivers/peripheral/dma/cy_dma.h **** * The Source Transfer Size \ref cy_en_dma_transfer_size_t.
 971:Generated_Source\PSoC6\pdl\drivers/peripheral/dma/cy_dma.h **** *
 972:Generated_Source\PSoC6\pdl\drivers/peripheral/dma/cy_dma.h **** * \funcusage 
 973:Generated_Source\PSoC6\pdl\drivers/peripheral/dma/cy_dma.h **** * \snippet dma\2.10\snippet\main.c snippet_Cy_DMA_Descriptor_SetterFunctions
 974:Generated_Source\PSoC6\pdl\drivers/peripheral/dma/cy_dma.h **** *
 975:Generated_Source\PSoC6\pdl\drivers/peripheral/dma/cy_dma.h **** *******************************************************************************/
 976:Generated_Source\PSoC6\pdl\drivers/peripheral/dma/cy_dma.h **** __STATIC_INLINE void Cy_DMA_Descriptor_SetSrcTransferSize(cy_stc_dma_descriptor_t * descriptor, cy_
 977:Generated_Source\PSoC6\pdl\drivers/peripheral/dma/cy_dma.h **** {
 978:Generated_Source\PSoC6\pdl\drivers/peripheral/dma/cy_dma.h ****     CY_ASSERT_L3(CY_DMA_IS_XFER_SIZE_VALID(srcTransferSize));
 979:Generated_Source\PSoC6\pdl\drivers/peripheral/dma/cy_dma.h **** 
 980:Generated_Source\PSoC6\pdl\drivers/peripheral/dma/cy_dma.h ****     CY_REG32_CLR_SET(descriptor->ctl, CY_DMA_CTL_SRC_SIZE, srcTransferSize);
 981:Generated_Source\PSoC6\pdl\drivers/peripheral/dma/cy_dma.h **** }
 982:Generated_Source\PSoC6\pdl\drivers/peripheral/dma/cy_dma.h **** 
 983:Generated_Source\PSoC6\pdl\drivers/peripheral/dma/cy_dma.h **** 
 984:Generated_Source\PSoC6\pdl\drivers/peripheral/dma/cy_dma.h **** /*******************************************************************************
 985:Generated_Source\PSoC6\pdl\drivers/peripheral/dma/cy_dma.h **** * Function Name: Cy_DMA_Descriptor_GetSrcTransferSize
 986:Generated_Source\PSoC6\pdl\drivers/peripheral/dma/cy_dma.h **** ****************************************************************************//**
 987:Generated_Source\PSoC6\pdl\drivers/peripheral/dma/cy_dma.h **** *
 988:Generated_Source\PSoC6\pdl\drivers/peripheral/dma/cy_dma.h **** * Returns the Source Transfer Size parameter of the specified descriptor.
ARM GAS  C:\Users\stijn\AppData\Local\Temp\cc6b5yFd.s 			page 19


 989:Generated_Source\PSoC6\pdl\drivers/peripheral/dma/cy_dma.h **** *
 990:Generated_Source\PSoC6\pdl\drivers/peripheral/dma/cy_dma.h **** * \param descriptor
 991:Generated_Source\PSoC6\pdl\drivers/peripheral/dma/cy_dma.h **** * The descriptor structure instance declared by the user/component.
 992:Generated_Source\PSoC6\pdl\drivers/peripheral/dma/cy_dma.h **** *
 993:Generated_Source\PSoC6\pdl\drivers/peripheral/dma/cy_dma.h **** * \return
 994:Generated_Source\PSoC6\pdl\drivers/peripheral/dma/cy_dma.h **** * The Source Transfer Size \ref cy_en_dma_transfer_size_t.
 995:Generated_Source\PSoC6\pdl\drivers/peripheral/dma/cy_dma.h **** *
 996:Generated_Source\PSoC6\pdl\drivers/peripheral/dma/cy_dma.h **** * \funcusage 
 997:Generated_Source\PSoC6\pdl\drivers/peripheral/dma/cy_dma.h **** * \snippet dma\2.10\snippet\main.c snippet_Cy_DMA_Descriptor_GetterFunctions
 998:Generated_Source\PSoC6\pdl\drivers/peripheral/dma/cy_dma.h **** *  
 999:Generated_Source\PSoC6\pdl\drivers/peripheral/dma/cy_dma.h **** *******************************************************************************/
1000:Generated_Source\PSoC6\pdl\drivers/peripheral/dma/cy_dma.h **** __STATIC_INLINE cy_en_dma_transfer_size_t Cy_DMA_Descriptor_GetSrcTransferSize(cy_stc_dma_descripto
1001:Generated_Source\PSoC6\pdl\drivers/peripheral/dma/cy_dma.h **** {
1002:Generated_Source\PSoC6\pdl\drivers/peripheral/dma/cy_dma.h ****     return((cy_en_dma_transfer_size_t) _FLD2VAL(CY_DMA_CTL_SRC_SIZE, descriptor->ctl));
1003:Generated_Source\PSoC6\pdl\drivers/peripheral/dma/cy_dma.h **** }
1004:Generated_Source\PSoC6\pdl\drivers/peripheral/dma/cy_dma.h **** 
1005:Generated_Source\PSoC6\pdl\drivers/peripheral/dma/cy_dma.h **** 
1006:Generated_Source\PSoC6\pdl\drivers/peripheral/dma/cy_dma.h **** /*******************************************************************************
1007:Generated_Source\PSoC6\pdl\drivers/peripheral/dma/cy_dma.h **** * Function Name: Cy_DMA_Descriptor_SetDstTransferSize
1008:Generated_Source\PSoC6\pdl\drivers/peripheral/dma/cy_dma.h **** ****************************************************************************//**
1009:Generated_Source\PSoC6\pdl\drivers/peripheral/dma/cy_dma.h **** *
1010:Generated_Source\PSoC6\pdl\drivers/peripheral/dma/cy_dma.h **** * Sets the Destination Transfer Size for the specified descriptor.
1011:Generated_Source\PSoC6\pdl\drivers/peripheral/dma/cy_dma.h **** *
1012:Generated_Source\PSoC6\pdl\drivers/peripheral/dma/cy_dma.h **** * \param descriptor
1013:Generated_Source\PSoC6\pdl\drivers/peripheral/dma/cy_dma.h **** * The descriptor structure instance declared by the user/component.
1014:Generated_Source\PSoC6\pdl\drivers/peripheral/dma/cy_dma.h **** *
1015:Generated_Source\PSoC6\pdl\drivers/peripheral/dma/cy_dma.h **** * \param dstTransferSize
1016:Generated_Source\PSoC6\pdl\drivers/peripheral/dma/cy_dma.h **** * The Destination Transfer Size \ref cy_en_dma_transfer_size_t.
1017:Generated_Source\PSoC6\pdl\drivers/peripheral/dma/cy_dma.h **** *
1018:Generated_Source\PSoC6\pdl\drivers/peripheral/dma/cy_dma.h **** * \funcusage 
1019:Generated_Source\PSoC6\pdl\drivers/peripheral/dma/cy_dma.h **** * \snippet dma\2.10\snippet\main.c snippet_Cy_DMA_Descriptor_SetterFunctions
1020:Generated_Source\PSoC6\pdl\drivers/peripheral/dma/cy_dma.h **** *
1021:Generated_Source\PSoC6\pdl\drivers/peripheral/dma/cy_dma.h **** *******************************************************************************/
1022:Generated_Source\PSoC6\pdl\drivers/peripheral/dma/cy_dma.h **** __STATIC_INLINE void Cy_DMA_Descriptor_SetDstTransferSize(cy_stc_dma_descriptor_t * descriptor, cy_
1023:Generated_Source\PSoC6\pdl\drivers/peripheral/dma/cy_dma.h **** {
1024:Generated_Source\PSoC6\pdl\drivers/peripheral/dma/cy_dma.h ****     CY_ASSERT_L3(CY_DMA_IS_XFER_SIZE_VALID(dstTransferSize));
1025:Generated_Source\PSoC6\pdl\drivers/peripheral/dma/cy_dma.h ****     
1026:Generated_Source\PSoC6\pdl\drivers/peripheral/dma/cy_dma.h ****     CY_REG32_CLR_SET(descriptor->ctl, CY_DMA_CTL_DST_SIZE, dstTransferSize);
1027:Generated_Source\PSoC6\pdl\drivers/peripheral/dma/cy_dma.h **** }
1028:Generated_Source\PSoC6\pdl\drivers/peripheral/dma/cy_dma.h **** 
1029:Generated_Source\PSoC6\pdl\drivers/peripheral/dma/cy_dma.h **** 
1030:Generated_Source\PSoC6\pdl\drivers/peripheral/dma/cy_dma.h **** /*******************************************************************************
1031:Generated_Source\PSoC6\pdl\drivers/peripheral/dma/cy_dma.h **** * Function Name: Cy_DMA_Descriptor_GetDstTransferSize
1032:Generated_Source\PSoC6\pdl\drivers/peripheral/dma/cy_dma.h **** ****************************************************************************//**
1033:Generated_Source\PSoC6\pdl\drivers/peripheral/dma/cy_dma.h **** *
1034:Generated_Source\PSoC6\pdl\drivers/peripheral/dma/cy_dma.h **** * Returns the Destination Transfer Size parameter of the specified descriptor.
1035:Generated_Source\PSoC6\pdl\drivers/peripheral/dma/cy_dma.h **** *
1036:Generated_Source\PSoC6\pdl\drivers/peripheral/dma/cy_dma.h **** * \param descriptor
1037:Generated_Source\PSoC6\pdl\drivers/peripheral/dma/cy_dma.h **** * The descriptor structure instance declared by the user/component.
1038:Generated_Source\PSoC6\pdl\drivers/peripheral/dma/cy_dma.h **** *
1039:Generated_Source\PSoC6\pdl\drivers/peripheral/dma/cy_dma.h **** * \return
1040:Generated_Source\PSoC6\pdl\drivers/peripheral/dma/cy_dma.h **** * The Destination Transfer Size \ref cy_en_dma_transfer_size_t.
1041:Generated_Source\PSoC6\pdl\drivers/peripheral/dma/cy_dma.h **** *
1042:Generated_Source\PSoC6\pdl\drivers/peripheral/dma/cy_dma.h **** * \funcusage 
1043:Generated_Source\PSoC6\pdl\drivers/peripheral/dma/cy_dma.h **** * \snippet dma\2.10\snippet\main.c snippet_Cy_DMA_Descriptor_GetterFunctions
1044:Generated_Source\PSoC6\pdl\drivers/peripheral/dma/cy_dma.h **** *  
1045:Generated_Source\PSoC6\pdl\drivers/peripheral/dma/cy_dma.h **** *******************************************************************************/
ARM GAS  C:\Users\stijn\AppData\Local\Temp\cc6b5yFd.s 			page 20


1046:Generated_Source\PSoC6\pdl\drivers/peripheral/dma/cy_dma.h **** __STATIC_INLINE cy_en_dma_transfer_size_t Cy_DMA_Descriptor_GetDstTransferSize(cy_stc_dma_descripto
1047:Generated_Source\PSoC6\pdl\drivers/peripheral/dma/cy_dma.h **** {
1048:Generated_Source\PSoC6\pdl\drivers/peripheral/dma/cy_dma.h ****     return((cy_en_dma_transfer_size_t) _FLD2VAL(CY_DMA_CTL_DST_SIZE, descriptor->ctl));
1049:Generated_Source\PSoC6\pdl\drivers/peripheral/dma/cy_dma.h **** }
1050:Generated_Source\PSoC6\pdl\drivers/peripheral/dma/cy_dma.h **** 
1051:Generated_Source\PSoC6\pdl\drivers/peripheral/dma/cy_dma.h **** 
1052:Generated_Source\PSoC6\pdl\drivers/peripheral/dma/cy_dma.h **** /*******************************************************************************
1053:Generated_Source\PSoC6\pdl\drivers/peripheral/dma/cy_dma.h **** * Function Name: Cy_DMA_Descriptor_SetRetrigger
1054:Generated_Source\PSoC6\pdl\drivers/peripheral/dma/cy_dma.h **** ****************************************************************************//**
1055:Generated_Source\PSoC6\pdl\drivers/peripheral/dma/cy_dma.h **** *
1056:Generated_Source\PSoC6\pdl\drivers/peripheral/dma/cy_dma.h **** * Sets the retrigger value that specifies whether the controller should 
1057:Generated_Source\PSoC6\pdl\drivers/peripheral/dma/cy_dma.h **** * wait for the input trigger to be deactivated.
1058:Generated_Source\PSoC6\pdl\drivers/peripheral/dma/cy_dma.h **** *
1059:Generated_Source\PSoC6\pdl\drivers/peripheral/dma/cy_dma.h **** * \param descriptor
1060:Generated_Source\PSoC6\pdl\drivers/peripheral/dma/cy_dma.h **** * The descriptor structure instance declared by the user/component.
1061:Generated_Source\PSoC6\pdl\drivers/peripheral/dma/cy_dma.h **** *
1062:Generated_Source\PSoC6\pdl\drivers/peripheral/dma/cy_dma.h **** * \param retrigger 
1063:Generated_Source\PSoC6\pdl\drivers/peripheral/dma/cy_dma.h **** * The \ref cy_en_dma_retrigger_t parameter specifies whether the controller
1064:Generated_Source\PSoC6\pdl\drivers/peripheral/dma/cy_dma.h **** * should wait for the input trigger to be deactivated.
1065:Generated_Source\PSoC6\pdl\drivers/peripheral/dma/cy_dma.h **** *
1066:Generated_Source\PSoC6\pdl\drivers/peripheral/dma/cy_dma.h **** * \funcusage 
1067:Generated_Source\PSoC6\pdl\drivers/peripheral/dma/cy_dma.h **** * \snippet dma\2.10\snippet\main.c snippet_Cy_DMA_Descriptor_SetterFunctions
1068:Generated_Source\PSoC6\pdl\drivers/peripheral/dma/cy_dma.h **** *
1069:Generated_Source\PSoC6\pdl\drivers/peripheral/dma/cy_dma.h **** *******************************************************************************/
1070:Generated_Source\PSoC6\pdl\drivers/peripheral/dma/cy_dma.h **** __STATIC_INLINE void Cy_DMA_Descriptor_SetRetrigger(cy_stc_dma_descriptor_t * descriptor, cy_en_dma
1071:Generated_Source\PSoC6\pdl\drivers/peripheral/dma/cy_dma.h **** {
1072:Generated_Source\PSoC6\pdl\drivers/peripheral/dma/cy_dma.h ****     CY_ASSERT_L3(CY_DMA_IS_RETRIG_VALID(retrigger));
1073:Generated_Source\PSoC6\pdl\drivers/peripheral/dma/cy_dma.h ****     
1074:Generated_Source\PSoC6\pdl\drivers/peripheral/dma/cy_dma.h ****     CY_REG32_CLR_SET(descriptor->ctl, CY_DMA_CTL_RETRIG, retrigger);
1075:Generated_Source\PSoC6\pdl\drivers/peripheral/dma/cy_dma.h **** }
1076:Generated_Source\PSoC6\pdl\drivers/peripheral/dma/cy_dma.h **** 
1077:Generated_Source\PSoC6\pdl\drivers/peripheral/dma/cy_dma.h **** 
1078:Generated_Source\PSoC6\pdl\drivers/peripheral/dma/cy_dma.h **** /*******************************************************************************
1079:Generated_Source\PSoC6\pdl\drivers/peripheral/dma/cy_dma.h **** * Function Name: Cy_DMA_Descriptor_GetRetrigger
1080:Generated_Source\PSoC6\pdl\drivers/peripheral/dma/cy_dma.h **** ****************************************************************************//**
1081:Generated_Source\PSoC6\pdl\drivers/peripheral/dma/cy_dma.h **** *
1082:Generated_Source\PSoC6\pdl\drivers/peripheral/dma/cy_dma.h **** * Returns a value that specifies whether the controller should 
1083:Generated_Source\PSoC6\pdl\drivers/peripheral/dma/cy_dma.h **** * wait for the input trigger to be deactivated.
1084:Generated_Source\PSoC6\pdl\drivers/peripheral/dma/cy_dma.h **** *
1085:Generated_Source\PSoC6\pdl\drivers/peripheral/dma/cy_dma.h **** * \param descriptor
1086:Generated_Source\PSoC6\pdl\drivers/peripheral/dma/cy_dma.h **** * The descriptor structure instance declared by the user/component.
1087:Generated_Source\PSoC6\pdl\drivers/peripheral/dma/cy_dma.h **** *
1088:Generated_Source\PSoC6\pdl\drivers/peripheral/dma/cy_dma.h **** * \return
1089:Generated_Source\PSoC6\pdl\drivers/peripheral/dma/cy_dma.h **** * The Retrigger setting \ref cy_en_dma_retrigger_t.
1090:Generated_Source\PSoC6\pdl\drivers/peripheral/dma/cy_dma.h **** *
1091:Generated_Source\PSoC6\pdl\drivers/peripheral/dma/cy_dma.h **** * \funcusage 
1092:Generated_Source\PSoC6\pdl\drivers/peripheral/dma/cy_dma.h **** * \snippet dma\2.10\snippet\main.c snippet_Cy_DMA_Descriptor_GetterFunctions
1093:Generated_Source\PSoC6\pdl\drivers/peripheral/dma/cy_dma.h **** *  
1094:Generated_Source\PSoC6\pdl\drivers/peripheral/dma/cy_dma.h **** *******************************************************************************/
1095:Generated_Source\PSoC6\pdl\drivers/peripheral/dma/cy_dma.h **** __STATIC_INLINE cy_en_dma_retrigger_t Cy_DMA_Descriptor_GetRetrigger(cy_stc_dma_descriptor_t const 
1096:Generated_Source\PSoC6\pdl\drivers/peripheral/dma/cy_dma.h **** {
1097:Generated_Source\PSoC6\pdl\drivers/peripheral/dma/cy_dma.h ****     return((cy_en_dma_retrigger_t) _FLD2VAL(CY_DMA_CTL_RETRIG, descriptor->ctl));
1098:Generated_Source\PSoC6\pdl\drivers/peripheral/dma/cy_dma.h **** }
1099:Generated_Source\PSoC6\pdl\drivers/peripheral/dma/cy_dma.h **** 
1100:Generated_Source\PSoC6\pdl\drivers/peripheral/dma/cy_dma.h **** 
1101:Generated_Source\PSoC6\pdl\drivers/peripheral/dma/cy_dma.h **** /*******************************************************************************
1102:Generated_Source\PSoC6\pdl\drivers/peripheral/dma/cy_dma.h **** * Function Name: Cy_DMA_Descriptor_GetDescriptorType
ARM GAS  C:\Users\stijn\AppData\Local\Temp\cc6b5yFd.s 			page 21


1103:Generated_Source\PSoC6\pdl\drivers/peripheral/dma/cy_dma.h **** ****************************************************************************//**
1104:Generated_Source\PSoC6\pdl\drivers/peripheral/dma/cy_dma.h **** *
1105:Generated_Source\PSoC6\pdl\drivers/peripheral/dma/cy_dma.h **** * Returns the descriptor's type of the specified descriptor.
1106:Generated_Source\PSoC6\pdl\drivers/peripheral/dma/cy_dma.h **** *
1107:Generated_Source\PSoC6\pdl\drivers/peripheral/dma/cy_dma.h **** * \param descriptor
1108:Generated_Source\PSoC6\pdl\drivers/peripheral/dma/cy_dma.h **** * The descriptor structure instance declared by the user/component.
1109:Generated_Source\PSoC6\pdl\drivers/peripheral/dma/cy_dma.h **** *
1110:Generated_Source\PSoC6\pdl\drivers/peripheral/dma/cy_dma.h **** * \return
1111:Generated_Source\PSoC6\pdl\drivers/peripheral/dma/cy_dma.h **** * The descriptor type \ref cy_en_dma_descriptor_type_t.
1112:Generated_Source\PSoC6\pdl\drivers/peripheral/dma/cy_dma.h **** *
1113:Generated_Source\PSoC6\pdl\drivers/peripheral/dma/cy_dma.h **** * \funcusage 
1114:Generated_Source\PSoC6\pdl\drivers/peripheral/dma/cy_dma.h **** * \snippet dma\2.10\snippet\main.c snippet_Cy_DMA_Descriptor_GetterFunctions
1115:Generated_Source\PSoC6\pdl\drivers/peripheral/dma/cy_dma.h **** *  
1116:Generated_Source\PSoC6\pdl\drivers/peripheral/dma/cy_dma.h **** *******************************************************************************/
1117:Generated_Source\PSoC6\pdl\drivers/peripheral/dma/cy_dma.h **** __STATIC_INLINE cy_en_dma_descriptor_type_t Cy_DMA_Descriptor_GetDescriptorType(cy_stc_dma_descript
1118:Generated_Source\PSoC6\pdl\drivers/peripheral/dma/cy_dma.h **** {
1119:Generated_Source\PSoC6\pdl\drivers/peripheral/dma/cy_dma.h ****     return((cy_en_dma_descriptor_type_t) _FLD2VAL(CY_DMA_CTL_TYPE, descriptor->ctl));
1120:Generated_Source\PSoC6\pdl\drivers/peripheral/dma/cy_dma.h **** }
1121:Generated_Source\PSoC6\pdl\drivers/peripheral/dma/cy_dma.h **** 
1122:Generated_Source\PSoC6\pdl\drivers/peripheral/dma/cy_dma.h **** 
1123:Generated_Source\PSoC6\pdl\drivers/peripheral/dma/cy_dma.h **** /*******************************************************************************
1124:Generated_Source\PSoC6\pdl\drivers/peripheral/dma/cy_dma.h **** * Function Name: Cy_DMA_Descriptor_SetChannelState
1125:Generated_Source\PSoC6\pdl\drivers/peripheral/dma/cy_dma.h **** ****************************************************************************//**
1126:Generated_Source\PSoC6\pdl\drivers/peripheral/dma/cy_dma.h **** *
1127:Generated_Source\PSoC6\pdl\drivers/peripheral/dma/cy_dma.h **** * Sets the channel state on completion of the specified descriptor.
1128:Generated_Source\PSoC6\pdl\drivers/peripheral/dma/cy_dma.h **** *
1129:Generated_Source\PSoC6\pdl\drivers/peripheral/dma/cy_dma.h **** * \param descriptor
1130:Generated_Source\PSoC6\pdl\drivers/peripheral/dma/cy_dma.h **** * The descriptor structure instance declared by the user/component.
1131:Generated_Source\PSoC6\pdl\drivers/peripheral/dma/cy_dma.h **** *
1132:Generated_Source\PSoC6\pdl\drivers/peripheral/dma/cy_dma.h **** * \param channelState 
1133:Generated_Source\PSoC6\pdl\drivers/peripheral/dma/cy_dma.h **** * The channel state \ref cy_en_dma_channel_state_t.
1134:Generated_Source\PSoC6\pdl\drivers/peripheral/dma/cy_dma.h **** *
1135:Generated_Source\PSoC6\pdl\drivers/peripheral/dma/cy_dma.h **** * \funcusage 
1136:Generated_Source\PSoC6\pdl\drivers/peripheral/dma/cy_dma.h **** * \snippet dma\2.10\snippet\main.c snippet_Cy_DMA_Descriptor_SetterFunctions
1137:Generated_Source\PSoC6\pdl\drivers/peripheral/dma/cy_dma.h **** *
1138:Generated_Source\PSoC6\pdl\drivers/peripheral/dma/cy_dma.h **** *******************************************************************************/
1139:Generated_Source\PSoC6\pdl\drivers/peripheral/dma/cy_dma.h **** __STATIC_INLINE void Cy_DMA_Descriptor_SetChannelState(cy_stc_dma_descriptor_t * descriptor, cy_en_
1140:Generated_Source\PSoC6\pdl\drivers/peripheral/dma/cy_dma.h **** {
1141:Generated_Source\PSoC6\pdl\drivers/peripheral/dma/cy_dma.h ****     CY_ASSERT_L3(CY_DMA_IS_CHANNEL_STATE_VALID(channelState));
1142:Generated_Source\PSoC6\pdl\drivers/peripheral/dma/cy_dma.h ****     
1143:Generated_Source\PSoC6\pdl\drivers/peripheral/dma/cy_dma.h ****     CY_REG32_CLR_SET(descriptor->ctl, CY_DMA_CTL_CH_DISABLE, channelState);
1144:Generated_Source\PSoC6\pdl\drivers/peripheral/dma/cy_dma.h **** }
1145:Generated_Source\PSoC6\pdl\drivers/peripheral/dma/cy_dma.h **** 
1146:Generated_Source\PSoC6\pdl\drivers/peripheral/dma/cy_dma.h **** 
1147:Generated_Source\PSoC6\pdl\drivers/peripheral/dma/cy_dma.h **** /*******************************************************************************
1148:Generated_Source\PSoC6\pdl\drivers/peripheral/dma/cy_dma.h **** * Function Name: Cy_DMA_Descriptor_GetChannelState
1149:Generated_Source\PSoC6\pdl\drivers/peripheral/dma/cy_dma.h **** ****************************************************************************//**
1150:Generated_Source\PSoC6\pdl\drivers/peripheral/dma/cy_dma.h **** *
1151:Generated_Source\PSoC6\pdl\drivers/peripheral/dma/cy_dma.h **** * Returns the channel state on completion of the specified descriptor.
1152:Generated_Source\PSoC6\pdl\drivers/peripheral/dma/cy_dma.h **** *
1153:Generated_Source\PSoC6\pdl\drivers/peripheral/dma/cy_dma.h **** * \param descriptor
1154:Generated_Source\PSoC6\pdl\drivers/peripheral/dma/cy_dma.h **** * The descriptor structure instance declared by the user/component.
1155:Generated_Source\PSoC6\pdl\drivers/peripheral/dma/cy_dma.h **** *
1156:Generated_Source\PSoC6\pdl\drivers/peripheral/dma/cy_dma.h **** * \return
1157:Generated_Source\PSoC6\pdl\drivers/peripheral/dma/cy_dma.h **** * The Channel State setting \ref cy_en_dma_channel_state_t.
1158:Generated_Source\PSoC6\pdl\drivers/peripheral/dma/cy_dma.h **** *
1159:Generated_Source\PSoC6\pdl\drivers/peripheral/dma/cy_dma.h **** * \funcusage 
ARM GAS  C:\Users\stijn\AppData\Local\Temp\cc6b5yFd.s 			page 22


1160:Generated_Source\PSoC6\pdl\drivers/peripheral/dma/cy_dma.h **** * \snippet dma\2.10\snippet\main.c snippet_Cy_DMA_Descriptor_GetterFunctions
1161:Generated_Source\PSoC6\pdl\drivers/peripheral/dma/cy_dma.h **** *  
1162:Generated_Source\PSoC6\pdl\drivers/peripheral/dma/cy_dma.h **** *******************************************************************************/
1163:Generated_Source\PSoC6\pdl\drivers/peripheral/dma/cy_dma.h **** __STATIC_INLINE cy_en_dma_channel_state_t Cy_DMA_Descriptor_GetChannelState(cy_stc_dma_descriptor_t
1164:Generated_Source\PSoC6\pdl\drivers/peripheral/dma/cy_dma.h **** {
1165:Generated_Source\PSoC6\pdl\drivers/peripheral/dma/cy_dma.h ****     return((cy_en_dma_channel_state_t) _FLD2VAL(CY_DMA_CTL_CH_DISABLE, descriptor->ctl));
1166:Generated_Source\PSoC6\pdl\drivers/peripheral/dma/cy_dma.h **** }
1167:Generated_Source\PSoC6\pdl\drivers/peripheral/dma/cy_dma.h **** 
1168:Generated_Source\PSoC6\pdl\drivers/peripheral/dma/cy_dma.h **** 
1169:Generated_Source\PSoC6\pdl\drivers/peripheral/dma/cy_dma.h **** /*******************************************************************************
1170:Generated_Source\PSoC6\pdl\drivers/peripheral/dma/cy_dma.h **** * Function Name: Cy_DMA_Descriptor_SetXloopDataCount
1171:Generated_Source\PSoC6\pdl\drivers/peripheral/dma/cy_dma.h **** ****************************************************************************//**
1172:Generated_Source\PSoC6\pdl\drivers/peripheral/dma/cy_dma.h **** *
1173:Generated_Source\PSoC6\pdl\drivers/peripheral/dma/cy_dma.h **** * Sets the number of data elements to transfer in the X loop
1174:Generated_Source\PSoC6\pdl\drivers/peripheral/dma/cy_dma.h **** * for the specified descriptor (for 1D or 2D descriptors only).
1175:Generated_Source\PSoC6\pdl\drivers/peripheral/dma/cy_dma.h **** *
1176:Generated_Source\PSoC6\pdl\drivers/peripheral/dma/cy_dma.h **** * \param descriptor
1177:Generated_Source\PSoC6\pdl\drivers/peripheral/dma/cy_dma.h **** * The descriptor structure instance declared by the user/component.
1178:Generated_Source\PSoC6\pdl\drivers/peripheral/dma/cy_dma.h **** *
1179:Generated_Source\PSoC6\pdl\drivers/peripheral/dma/cy_dma.h **** * \param xCount
1180:Generated_Source\PSoC6\pdl\drivers/peripheral/dma/cy_dma.h **** * The number of data elements to transfer in the X loop. Valid range is 1 ... 256.
1181:Generated_Source\PSoC6\pdl\drivers/peripheral/dma/cy_dma.h **** *
1182:Generated_Source\PSoC6\pdl\drivers/peripheral/dma/cy_dma.h **** * \funcusage 
1183:Generated_Source\PSoC6\pdl\drivers/peripheral/dma/cy_dma.h **** * \snippet dma\2.10\snippet\main.c snippet_Cy_DMA_Descriptor_SetterFunctions
1184:Generated_Source\PSoC6\pdl\drivers/peripheral/dma/cy_dma.h **** *  
1185:Generated_Source\PSoC6\pdl\drivers/peripheral/dma/cy_dma.h **** *******************************************************************************/
1186:Generated_Source\PSoC6\pdl\drivers/peripheral/dma/cy_dma.h **** __STATIC_INLINE void Cy_DMA_Descriptor_SetXloopDataCount(cy_stc_dma_descriptor_t * descriptor, uint
1187:Generated_Source\PSoC6\pdl\drivers/peripheral/dma/cy_dma.h **** {
1188:Generated_Source\PSoC6\pdl\drivers/peripheral/dma/cy_dma.h ****     CY_ASSERT_L1(CY_DMA_SINGLE_TRANSFER != Cy_DMA_Descriptor_GetDescriptorType(descriptor));
1189:Generated_Source\PSoC6\pdl\drivers/peripheral/dma/cy_dma.h ****     CY_ASSERT_L2(CY_DMA_IS_LOOP_COUNT_VALID(xCount));
1190:Generated_Source\PSoC6\pdl\drivers/peripheral/dma/cy_dma.h ****     /* Convert the data count from the user's range (1-256) into the machine range (0-255). */
1191:Generated_Source\PSoC6\pdl\drivers/peripheral/dma/cy_dma.h ****     CY_REG32_CLR_SET(descriptor->xCtl, CY_DMA_CTL_COUNT, xCount - 1UL);
1192:Generated_Source\PSoC6\pdl\drivers/peripheral/dma/cy_dma.h **** }
1193:Generated_Source\PSoC6\pdl\drivers/peripheral/dma/cy_dma.h **** 
1194:Generated_Source\PSoC6\pdl\drivers/peripheral/dma/cy_dma.h **** 
1195:Generated_Source\PSoC6\pdl\drivers/peripheral/dma/cy_dma.h **** /*******************************************************************************
1196:Generated_Source\PSoC6\pdl\drivers/peripheral/dma/cy_dma.h **** * Function Name: Cy_DMA_Descriptor_GetXloopDataCount
1197:Generated_Source\PSoC6\pdl\drivers/peripheral/dma/cy_dma.h **** ****************************************************************************//**
1198:Generated_Source\PSoC6\pdl\drivers/peripheral/dma/cy_dma.h **** *
1199:Generated_Source\PSoC6\pdl\drivers/peripheral/dma/cy_dma.h **** * Returns the number of data elements for the X loop of the specified
1200:Generated_Source\PSoC6\pdl\drivers/peripheral/dma/cy_dma.h **** * descriptor (for 1D or 2D descriptors only).
1201:Generated_Source\PSoC6\pdl\drivers/peripheral/dma/cy_dma.h **** *
1202:Generated_Source\PSoC6\pdl\drivers/peripheral/dma/cy_dma.h **** * \param descriptor
1203:Generated_Source\PSoC6\pdl\drivers/peripheral/dma/cy_dma.h **** * The descriptor structure instance declared by the user/component.
1204:Generated_Source\PSoC6\pdl\drivers/peripheral/dma/cy_dma.h **** *
1205:Generated_Source\PSoC6\pdl\drivers/peripheral/dma/cy_dma.h **** * \return
1206:Generated_Source\PSoC6\pdl\drivers/peripheral/dma/cy_dma.h **** * The number of data elements to transfer in the X loop. The range is 1 ... 256.
1207:Generated_Source\PSoC6\pdl\drivers/peripheral/dma/cy_dma.h **** *
1208:Generated_Source\PSoC6\pdl\drivers/peripheral/dma/cy_dma.h **** * \funcusage 
1209:Generated_Source\PSoC6\pdl\drivers/peripheral/dma/cy_dma.h **** * \snippet dma\2.10\snippet\main.c snippet_Cy_DMA_Descriptor_GetterFunctions
1210:Generated_Source\PSoC6\pdl\drivers/peripheral/dma/cy_dma.h **** *  
1211:Generated_Source\PSoC6\pdl\drivers/peripheral/dma/cy_dma.h **** *******************************************************************************/
1212:Generated_Source\PSoC6\pdl\drivers/peripheral/dma/cy_dma.h **** __STATIC_INLINE uint32_t Cy_DMA_Descriptor_GetXloopDataCount(cy_stc_dma_descriptor_t const * descri
1213:Generated_Source\PSoC6\pdl\drivers/peripheral/dma/cy_dma.h **** {
1214:Generated_Source\PSoC6\pdl\drivers/peripheral/dma/cy_dma.h ****     CY_ASSERT_L1(CY_DMA_SINGLE_TRANSFER != Cy_DMA_Descriptor_GetDescriptorType(descriptor));
1215:Generated_Source\PSoC6\pdl\drivers/peripheral/dma/cy_dma.h ****     /* Convert the data count from the machine range (0-255) into the user's range (1-256). */
1216:Generated_Source\PSoC6\pdl\drivers/peripheral/dma/cy_dma.h ****     return (_FLD2VAL(CY_DMA_CTL_COUNT, descriptor->xCtl) + 1UL);
ARM GAS  C:\Users\stijn\AppData\Local\Temp\cc6b5yFd.s 			page 23


1217:Generated_Source\PSoC6\pdl\drivers/peripheral/dma/cy_dma.h **** }
1218:Generated_Source\PSoC6\pdl\drivers/peripheral/dma/cy_dma.h **** 
1219:Generated_Source\PSoC6\pdl\drivers/peripheral/dma/cy_dma.h **** 
1220:Generated_Source\PSoC6\pdl\drivers/peripheral/dma/cy_dma.h **** /*******************************************************************************
1221:Generated_Source\PSoC6\pdl\drivers/peripheral/dma/cy_dma.h **** * Function Name: Cy_DMA_Descriptor_SetXloopSrcIncrement
1222:Generated_Source\PSoC6\pdl\drivers/peripheral/dma/cy_dma.h **** ****************************************************************************//**
1223:Generated_Source\PSoC6\pdl\drivers/peripheral/dma/cy_dma.h **** *
1224:Generated_Source\PSoC6\pdl\drivers/peripheral/dma/cy_dma.h **** * Sets the source increment parameter for the X loop of the specified
1225:Generated_Source\PSoC6\pdl\drivers/peripheral/dma/cy_dma.h **** * descriptor (for 1D or 2D descriptors only).
1226:Generated_Source\PSoC6\pdl\drivers/peripheral/dma/cy_dma.h **** *
1227:Generated_Source\PSoC6\pdl\drivers/peripheral/dma/cy_dma.h **** * \param descriptor
1228:Generated_Source\PSoC6\pdl\drivers/peripheral/dma/cy_dma.h **** * The descriptor structure instance declared by the user/component.
1229:Generated_Source\PSoC6\pdl\drivers/peripheral/dma/cy_dma.h **** *
1230:Generated_Source\PSoC6\pdl\drivers/peripheral/dma/cy_dma.h **** * \param srcXincrement
1231:Generated_Source\PSoC6\pdl\drivers/peripheral/dma/cy_dma.h **** * The value of the source increment. The valid range is -2048 ... 2047.
1232:Generated_Source\PSoC6\pdl\drivers/peripheral/dma/cy_dma.h **** *
1233:Generated_Source\PSoC6\pdl\drivers/peripheral/dma/cy_dma.h **** * \funcusage 
1234:Generated_Source\PSoC6\pdl\drivers/peripheral/dma/cy_dma.h **** * \snippet dma\2.10\snippet\main.c snippet_Cy_DMA_Descriptor_SetterFunctions
1235:Generated_Source\PSoC6\pdl\drivers/peripheral/dma/cy_dma.h **** *
1236:Generated_Source\PSoC6\pdl\drivers/peripheral/dma/cy_dma.h **** *******************************************************************************/
1237:Generated_Source\PSoC6\pdl\drivers/peripheral/dma/cy_dma.h **** __STATIC_INLINE void Cy_DMA_Descriptor_SetXloopSrcIncrement(cy_stc_dma_descriptor_t * descriptor, i
1238:Generated_Source\PSoC6\pdl\drivers/peripheral/dma/cy_dma.h **** {
1239:Generated_Source\PSoC6\pdl\drivers/peripheral/dma/cy_dma.h ****     CY_ASSERT_L1(CY_DMA_SINGLE_TRANSFER != Cy_DMA_Descriptor_GetDescriptorType(descriptor));
1240:Generated_Source\PSoC6\pdl\drivers/peripheral/dma/cy_dma.h ****     CY_ASSERT_L2(CY_DMA_IS_LOOP_INCR_VALID(srcXincrement));
1241:Generated_Source\PSoC6\pdl\drivers/peripheral/dma/cy_dma.h ****     
1242:Generated_Source\PSoC6\pdl\drivers/peripheral/dma/cy_dma.h ****     CY_REG32_CLR_SET(descriptor->xCtl, CY_DMA_CTL_SRC_INCR, srcXincrement);
1243:Generated_Source\PSoC6\pdl\drivers/peripheral/dma/cy_dma.h **** }
1244:Generated_Source\PSoC6\pdl\drivers/peripheral/dma/cy_dma.h **** 
1245:Generated_Source\PSoC6\pdl\drivers/peripheral/dma/cy_dma.h **** 
1246:Generated_Source\PSoC6\pdl\drivers/peripheral/dma/cy_dma.h **** /*******************************************************************************
1247:Generated_Source\PSoC6\pdl\drivers/peripheral/dma/cy_dma.h **** * Function Name: Cy_DMA_Descriptor_GetXloopSrcIncrement
1248:Generated_Source\PSoC6\pdl\drivers/peripheral/dma/cy_dma.h **** ****************************************************************************//**
1249:Generated_Source\PSoC6\pdl\drivers/peripheral/dma/cy_dma.h **** *
1250:Generated_Source\PSoC6\pdl\drivers/peripheral/dma/cy_dma.h **** * Returns the source increment parameter for the X loop of the specified
1251:Generated_Source\PSoC6\pdl\drivers/peripheral/dma/cy_dma.h **** * descriptor (for 1D or 2D descriptors only).
1252:Generated_Source\PSoC6\pdl\drivers/peripheral/dma/cy_dma.h **** *
1253:Generated_Source\PSoC6\pdl\drivers/peripheral/dma/cy_dma.h **** * \param descriptor
1254:Generated_Source\PSoC6\pdl\drivers/peripheral/dma/cy_dma.h **** * The descriptor structure instance declared by the user/component.
1255:Generated_Source\PSoC6\pdl\drivers/peripheral/dma/cy_dma.h **** *
1256:Generated_Source\PSoC6\pdl\drivers/peripheral/dma/cy_dma.h **** * \return
1257:Generated_Source\PSoC6\pdl\drivers/peripheral/dma/cy_dma.h **** * The value of the source increment. The range is -2048 ... 2047.
1258:Generated_Source\PSoC6\pdl\drivers/peripheral/dma/cy_dma.h **** *
1259:Generated_Source\PSoC6\pdl\drivers/peripheral/dma/cy_dma.h **** * \funcusage 
1260:Generated_Source\PSoC6\pdl\drivers/peripheral/dma/cy_dma.h **** * \snippet dma\2.10\snippet\main.c snippet_Cy_DMA_Descriptor_GetterFunctions
1261:Generated_Source\PSoC6\pdl\drivers/peripheral/dma/cy_dma.h **** *  
1262:Generated_Source\PSoC6\pdl\drivers/peripheral/dma/cy_dma.h **** *******************************************************************************/
1263:Generated_Source\PSoC6\pdl\drivers/peripheral/dma/cy_dma.h **** __STATIC_INLINE int32_t Cy_DMA_Descriptor_GetXloopSrcIncrement(cy_stc_dma_descriptor_t const * desc
1264:Generated_Source\PSoC6\pdl\drivers/peripheral/dma/cy_dma.h **** {
1265:Generated_Source\PSoC6\pdl\drivers/peripheral/dma/cy_dma.h ****     CY_ASSERT_L1(CY_DMA_SINGLE_TRANSFER != Cy_DMA_Descriptor_GetDescriptorType(descriptor));
1266:Generated_Source\PSoC6\pdl\drivers/peripheral/dma/cy_dma.h ****     
1267:Generated_Source\PSoC6\pdl\drivers/peripheral/dma/cy_dma.h ****     return ((int32_t) _FLD2VAL(CY_DMA_CTL_SRC_INCR, descriptor->xCtl));
1268:Generated_Source\PSoC6\pdl\drivers/peripheral/dma/cy_dma.h **** }
1269:Generated_Source\PSoC6\pdl\drivers/peripheral/dma/cy_dma.h **** 
1270:Generated_Source\PSoC6\pdl\drivers/peripheral/dma/cy_dma.h **** 
1271:Generated_Source\PSoC6\pdl\drivers/peripheral/dma/cy_dma.h **** /*******************************************************************************
1272:Generated_Source\PSoC6\pdl\drivers/peripheral/dma/cy_dma.h **** * Function Name: Cy_DMA_Descriptor_SetXloopDstIncrement
1273:Generated_Source\PSoC6\pdl\drivers/peripheral/dma/cy_dma.h **** ****************************************************************************//**
ARM GAS  C:\Users\stijn\AppData\Local\Temp\cc6b5yFd.s 			page 24


1274:Generated_Source\PSoC6\pdl\drivers/peripheral/dma/cy_dma.h **** *
1275:Generated_Source\PSoC6\pdl\drivers/peripheral/dma/cy_dma.h **** * Sets the destination increment parameter for the X loop for the specified
1276:Generated_Source\PSoC6\pdl\drivers/peripheral/dma/cy_dma.h **** * descriptor (for 1D or 2D descriptors only).
1277:Generated_Source\PSoC6\pdl\drivers/peripheral/dma/cy_dma.h **** *
1278:Generated_Source\PSoC6\pdl\drivers/peripheral/dma/cy_dma.h **** * \param descriptor
1279:Generated_Source\PSoC6\pdl\drivers/peripheral/dma/cy_dma.h **** * The descriptor structure instance declared by the user/component.
1280:Generated_Source\PSoC6\pdl\drivers/peripheral/dma/cy_dma.h **** *
1281:Generated_Source\PSoC6\pdl\drivers/peripheral/dma/cy_dma.h **** * \param dstXincrement
1282:Generated_Source\PSoC6\pdl\drivers/peripheral/dma/cy_dma.h **** * The value of the destination increment. The valid range is -2048 ... 2047.
1283:Generated_Source\PSoC6\pdl\drivers/peripheral/dma/cy_dma.h **** *
1284:Generated_Source\PSoC6\pdl\drivers/peripheral/dma/cy_dma.h **** * \funcusage 
1285:Generated_Source\PSoC6\pdl\drivers/peripheral/dma/cy_dma.h **** * \snippet dma\2.10\snippet\main.c snippet_Cy_DMA_Descriptor_SetterFunctions
1286:Generated_Source\PSoC6\pdl\drivers/peripheral/dma/cy_dma.h **** *  
1287:Generated_Source\PSoC6\pdl\drivers/peripheral/dma/cy_dma.h **** *******************************************************************************/
1288:Generated_Source\PSoC6\pdl\drivers/peripheral/dma/cy_dma.h **** __STATIC_INLINE void Cy_DMA_Descriptor_SetXloopDstIncrement(cy_stc_dma_descriptor_t * descriptor, i
1289:Generated_Source\PSoC6\pdl\drivers/peripheral/dma/cy_dma.h **** {
1290:Generated_Source\PSoC6\pdl\drivers/peripheral/dma/cy_dma.h ****     CY_ASSERT_L1(CY_DMA_SINGLE_TRANSFER != Cy_DMA_Descriptor_GetDescriptorType(descriptor));
1291:Generated_Source\PSoC6\pdl\drivers/peripheral/dma/cy_dma.h ****     CY_ASSERT_L2(CY_DMA_IS_LOOP_INCR_VALID(dstXincrement));
1292:Generated_Source\PSoC6\pdl\drivers/peripheral/dma/cy_dma.h ****     
1293:Generated_Source\PSoC6\pdl\drivers/peripheral/dma/cy_dma.h ****     CY_REG32_CLR_SET(descriptor->xCtl, CY_DMA_CTL_DST_INCR, dstXincrement);
1294:Generated_Source\PSoC6\pdl\drivers/peripheral/dma/cy_dma.h **** }
1295:Generated_Source\PSoC6\pdl\drivers/peripheral/dma/cy_dma.h **** 
1296:Generated_Source\PSoC6\pdl\drivers/peripheral/dma/cy_dma.h **** 
1297:Generated_Source\PSoC6\pdl\drivers/peripheral/dma/cy_dma.h **** /*******************************************************************************
1298:Generated_Source\PSoC6\pdl\drivers/peripheral/dma/cy_dma.h **** * Function Name: Cy_DMA_Descriptor_GetXloopDstIncrement
1299:Generated_Source\PSoC6\pdl\drivers/peripheral/dma/cy_dma.h **** ****************************************************************************//**
1300:Generated_Source\PSoC6\pdl\drivers/peripheral/dma/cy_dma.h **** *
1301:Generated_Source\PSoC6\pdl\drivers/peripheral/dma/cy_dma.h **** * Returns the destination increment parameter for the X loop of the specified
1302:Generated_Source\PSoC6\pdl\drivers/peripheral/dma/cy_dma.h **** * descriptor (for 1D or 2D descriptors only).
1303:Generated_Source\PSoC6\pdl\drivers/peripheral/dma/cy_dma.h **** *
1304:Generated_Source\PSoC6\pdl\drivers/peripheral/dma/cy_dma.h **** * \param descriptor
1305:Generated_Source\PSoC6\pdl\drivers/peripheral/dma/cy_dma.h **** * The descriptor structure instance declared by the user/component.
1306:Generated_Source\PSoC6\pdl\drivers/peripheral/dma/cy_dma.h **** *
1307:Generated_Source\PSoC6\pdl\drivers/peripheral/dma/cy_dma.h **** * \return
1308:Generated_Source\PSoC6\pdl\drivers/peripheral/dma/cy_dma.h **** * The value of the destination increment. The range is -2048 ... 2047.
1309:Generated_Source\PSoC6\pdl\drivers/peripheral/dma/cy_dma.h **** *
1310:Generated_Source\PSoC6\pdl\drivers/peripheral/dma/cy_dma.h **** * \funcusage 
1311:Generated_Source\PSoC6\pdl\drivers/peripheral/dma/cy_dma.h **** * \snippet dma\2.10\snippet\main.c snippet_Cy_DMA_Descriptor_GetterFunctions
1312:Generated_Source\PSoC6\pdl\drivers/peripheral/dma/cy_dma.h **** *  
1313:Generated_Source\PSoC6\pdl\drivers/peripheral/dma/cy_dma.h **** *******************************************************************************/
1314:Generated_Source\PSoC6\pdl\drivers/peripheral/dma/cy_dma.h **** __STATIC_INLINE int32_t Cy_DMA_Descriptor_GetXloopDstIncrement(cy_stc_dma_descriptor_t const * desc
1315:Generated_Source\PSoC6\pdl\drivers/peripheral/dma/cy_dma.h **** {
1316:Generated_Source\PSoC6\pdl\drivers/peripheral/dma/cy_dma.h ****     CY_ASSERT_L1(CY_DMA_SINGLE_TRANSFER != Cy_DMA_Descriptor_GetDescriptorType(descriptor));
1317:Generated_Source\PSoC6\pdl\drivers/peripheral/dma/cy_dma.h ****     
1318:Generated_Source\PSoC6\pdl\drivers/peripheral/dma/cy_dma.h ****     return ((int32_t) _FLD2VAL(CY_DMA_CTL_DST_INCR, descriptor->xCtl));
1319:Generated_Source\PSoC6\pdl\drivers/peripheral/dma/cy_dma.h **** }
1320:Generated_Source\PSoC6\pdl\drivers/peripheral/dma/cy_dma.h **** 
1321:Generated_Source\PSoC6\pdl\drivers/peripheral/dma/cy_dma.h **** 
1322:Generated_Source\PSoC6\pdl\drivers/peripheral/dma/cy_dma.h **** /*******************************************************************************
1323:Generated_Source\PSoC6\pdl\drivers/peripheral/dma/cy_dma.h **** * Function Name: Cy_DMA_Descriptor_SetYloopDataCount
1324:Generated_Source\PSoC6\pdl\drivers/peripheral/dma/cy_dma.h **** ****************************************************************************//**
1325:Generated_Source\PSoC6\pdl\drivers/peripheral/dma/cy_dma.h **** *
1326:Generated_Source\PSoC6\pdl\drivers/peripheral/dma/cy_dma.h **** * Sets the number of data elements for the Y loop of the specified descriptor
1327:Generated_Source\PSoC6\pdl\drivers/peripheral/dma/cy_dma.h **** * (for 2D descriptors only).
1328:Generated_Source\PSoC6\pdl\drivers/peripheral/dma/cy_dma.h **** *
1329:Generated_Source\PSoC6\pdl\drivers/peripheral/dma/cy_dma.h **** * \param descriptor
1330:Generated_Source\PSoC6\pdl\drivers/peripheral/dma/cy_dma.h **** * The descriptor structure instance declared by the user/component.
ARM GAS  C:\Users\stijn\AppData\Local\Temp\cc6b5yFd.s 			page 25


1331:Generated_Source\PSoC6\pdl\drivers/peripheral/dma/cy_dma.h **** *
1332:Generated_Source\PSoC6\pdl\drivers/peripheral/dma/cy_dma.h **** * \param yCount
1333:Generated_Source\PSoC6\pdl\drivers/peripheral/dma/cy_dma.h **** * The number of X loops to execute in the Y loop. The valid range is 1 ... 256.
1334:Generated_Source\PSoC6\pdl\drivers/peripheral/dma/cy_dma.h **** *
1335:Generated_Source\PSoC6\pdl\drivers/peripheral/dma/cy_dma.h **** * \funcusage 
1336:Generated_Source\PSoC6\pdl\drivers/peripheral/dma/cy_dma.h **** * \snippet dma\2.10\snippet\main.c snippet_Cy_DMA_Descriptor_SetterFunctions
1337:Generated_Source\PSoC6\pdl\drivers/peripheral/dma/cy_dma.h **** *  
1338:Generated_Source\PSoC6\pdl\drivers/peripheral/dma/cy_dma.h **** *******************************************************************************/
1339:Generated_Source\PSoC6\pdl\drivers/peripheral/dma/cy_dma.h **** __STATIC_INLINE void Cy_DMA_Descriptor_SetYloopDataCount(cy_stc_dma_descriptor_t * descriptor, uint
1340:Generated_Source\PSoC6\pdl\drivers/peripheral/dma/cy_dma.h **** {
1341:Generated_Source\PSoC6\pdl\drivers/peripheral/dma/cy_dma.h ****     CY_ASSERT_L1(CY_DMA_2D_TRANSFER == Cy_DMA_Descriptor_GetDescriptorType(descriptor));
1342:Generated_Source\PSoC6\pdl\drivers/peripheral/dma/cy_dma.h ****     CY_ASSERT_L2(CY_DMA_IS_LOOP_COUNT_VALID(yCount));
1343:Generated_Source\PSoC6\pdl\drivers/peripheral/dma/cy_dma.h ****     /* Convert the data count from the user's range (1-256) into the machine range (0-255). */
1344:Generated_Source\PSoC6\pdl\drivers/peripheral/dma/cy_dma.h ****     CY_REG32_CLR_SET(descriptor->yCtl, CY_DMA_CTL_COUNT, yCount - 1UL);
1345:Generated_Source\PSoC6\pdl\drivers/peripheral/dma/cy_dma.h **** }
1346:Generated_Source\PSoC6\pdl\drivers/peripheral/dma/cy_dma.h **** 
1347:Generated_Source\PSoC6\pdl\drivers/peripheral/dma/cy_dma.h **** 
1348:Generated_Source\PSoC6\pdl\drivers/peripheral/dma/cy_dma.h **** /*******************************************************************************
1349:Generated_Source\PSoC6\pdl\drivers/peripheral/dma/cy_dma.h **** * Function Name: Cy_DMA_Descriptor_GetYloopDataCount
1350:Generated_Source\PSoC6\pdl\drivers/peripheral/dma/cy_dma.h **** ****************************************************************************//**
1351:Generated_Source\PSoC6\pdl\drivers/peripheral/dma/cy_dma.h **** *
1352:Generated_Source\PSoC6\pdl\drivers/peripheral/dma/cy_dma.h **** * Returns the number of X loops to execute in the Y loop of the specified
1353:Generated_Source\PSoC6\pdl\drivers/peripheral/dma/cy_dma.h **** * descriptor (for 2D descriptors only).
1354:Generated_Source\PSoC6\pdl\drivers/peripheral/dma/cy_dma.h **** *
1355:Generated_Source\PSoC6\pdl\drivers/peripheral/dma/cy_dma.h **** * \param descriptor
1356:Generated_Source\PSoC6\pdl\drivers/peripheral/dma/cy_dma.h **** * The descriptor structure instance declared by the user/component.
1357:Generated_Source\PSoC6\pdl\drivers/peripheral/dma/cy_dma.h **** *
1358:Generated_Source\PSoC6\pdl\drivers/peripheral/dma/cy_dma.h **** * \return
1359:Generated_Source\PSoC6\pdl\drivers/peripheral/dma/cy_dma.h **** * The number of X loops to execute in the Y loop. The range is 1 ... 256.
1360:Generated_Source\PSoC6\pdl\drivers/peripheral/dma/cy_dma.h **** *
1361:Generated_Source\PSoC6\pdl\drivers/peripheral/dma/cy_dma.h **** * \funcusage 
1362:Generated_Source\PSoC6\pdl\drivers/peripheral/dma/cy_dma.h **** * \snippet dma\2.10\snippet\main.c snippet_Cy_DMA_Descriptor_GetterFunctions
1363:Generated_Source\PSoC6\pdl\drivers/peripheral/dma/cy_dma.h **** *  
1364:Generated_Source\PSoC6\pdl\drivers/peripheral/dma/cy_dma.h **** *******************************************************************************/
1365:Generated_Source\PSoC6\pdl\drivers/peripheral/dma/cy_dma.h **** __STATIC_INLINE uint32_t Cy_DMA_Descriptor_GetYloopDataCount(cy_stc_dma_descriptor_t const * descri
1366:Generated_Source\PSoC6\pdl\drivers/peripheral/dma/cy_dma.h **** {
1367:Generated_Source\PSoC6\pdl\drivers/peripheral/dma/cy_dma.h ****     CY_ASSERT_L1(CY_DMA_2D_TRANSFER == Cy_DMA_Descriptor_GetDescriptorType(descriptor));
1368:Generated_Source\PSoC6\pdl\drivers/peripheral/dma/cy_dma.h ****     /* Convert the data count from the machine range (0-255) into the user's range (1-256). */
1369:Generated_Source\PSoC6\pdl\drivers/peripheral/dma/cy_dma.h ****     return (_FLD2VAL(CY_DMA_CTL_COUNT, descriptor->yCtl) + 1UL);
1370:Generated_Source\PSoC6\pdl\drivers/peripheral/dma/cy_dma.h **** }
1371:Generated_Source\PSoC6\pdl\drivers/peripheral/dma/cy_dma.h **** 
1372:Generated_Source\PSoC6\pdl\drivers/peripheral/dma/cy_dma.h **** 
1373:Generated_Source\PSoC6\pdl\drivers/peripheral/dma/cy_dma.h **** /*******************************************************************************
1374:Generated_Source\PSoC6\pdl\drivers/peripheral/dma/cy_dma.h **** * Function Name: Cy_DMA_Descriptor_SetYloopSrcIncrement
1375:Generated_Source\PSoC6\pdl\drivers/peripheral/dma/cy_dma.h **** ****************************************************************************//**
1376:Generated_Source\PSoC6\pdl\drivers/peripheral/dma/cy_dma.h **** *
1377:Generated_Source\PSoC6\pdl\drivers/peripheral/dma/cy_dma.h **** * Sets the source increment parameter for the Y loop for the specified
1378:Generated_Source\PSoC6\pdl\drivers/peripheral/dma/cy_dma.h **** * descriptor (for 2D descriptors only).
1379:Generated_Source\PSoC6\pdl\drivers/peripheral/dma/cy_dma.h **** *
1380:Generated_Source\PSoC6\pdl\drivers/peripheral/dma/cy_dma.h **** * \param descriptor
1381:Generated_Source\PSoC6\pdl\drivers/peripheral/dma/cy_dma.h **** * The descriptor structure instance declared by the user/component.
1382:Generated_Source\PSoC6\pdl\drivers/peripheral/dma/cy_dma.h **** *
1383:Generated_Source\PSoC6\pdl\drivers/peripheral/dma/cy_dma.h **** * \param srcYincrement
1384:Generated_Source\PSoC6\pdl\drivers/peripheral/dma/cy_dma.h **** * The value of the source increment. The valid range is -2048 ... 2047.
1385:Generated_Source\PSoC6\pdl\drivers/peripheral/dma/cy_dma.h **** *
1386:Generated_Source\PSoC6\pdl\drivers/peripheral/dma/cy_dma.h **** * \funcusage 
1387:Generated_Source\PSoC6\pdl\drivers/peripheral/dma/cy_dma.h **** * \snippet dma\2.10\snippet\main.c snippet_Cy_DMA_Descriptor_SetterFunctions
ARM GAS  C:\Users\stijn\AppData\Local\Temp\cc6b5yFd.s 			page 26


1388:Generated_Source\PSoC6\pdl\drivers/peripheral/dma/cy_dma.h **** *  
1389:Generated_Source\PSoC6\pdl\drivers/peripheral/dma/cy_dma.h **** *******************************************************************************/
1390:Generated_Source\PSoC6\pdl\drivers/peripheral/dma/cy_dma.h **** __STATIC_INLINE void Cy_DMA_Descriptor_SetYloopSrcIncrement(cy_stc_dma_descriptor_t * descriptor, i
1391:Generated_Source\PSoC6\pdl\drivers/peripheral/dma/cy_dma.h **** {
1392:Generated_Source\PSoC6\pdl\drivers/peripheral/dma/cy_dma.h ****     CY_ASSERT_L1(CY_DMA_2D_TRANSFER == Cy_DMA_Descriptor_GetDescriptorType(descriptor));
1393:Generated_Source\PSoC6\pdl\drivers/peripheral/dma/cy_dma.h ****     CY_ASSERT_L2(CY_DMA_IS_LOOP_INCR_VALID(srcYincrement));
1394:Generated_Source\PSoC6\pdl\drivers/peripheral/dma/cy_dma.h ****     
1395:Generated_Source\PSoC6\pdl\drivers/peripheral/dma/cy_dma.h ****     CY_REG32_CLR_SET(descriptor->yCtl, CY_DMA_CTL_SRC_INCR, srcYincrement);
1396:Generated_Source\PSoC6\pdl\drivers/peripheral/dma/cy_dma.h **** }
1397:Generated_Source\PSoC6\pdl\drivers/peripheral/dma/cy_dma.h **** 
1398:Generated_Source\PSoC6\pdl\drivers/peripheral/dma/cy_dma.h **** 
1399:Generated_Source\PSoC6\pdl\drivers/peripheral/dma/cy_dma.h **** /*******************************************************************************
1400:Generated_Source\PSoC6\pdl\drivers/peripheral/dma/cy_dma.h **** * Function Name: Cy_DMA_Descriptor_GetYloopSrcIncrement
1401:Generated_Source\PSoC6\pdl\drivers/peripheral/dma/cy_dma.h **** ****************************************************************************//**
1402:Generated_Source\PSoC6\pdl\drivers/peripheral/dma/cy_dma.h **** *
1403:Generated_Source\PSoC6\pdl\drivers/peripheral/dma/cy_dma.h **** * Returns the source increment parameter for the outer Y of the specified
1404:Generated_Source\PSoC6\pdl\drivers/peripheral/dma/cy_dma.h **** * descriptor (for 2D descriptors only).
1405:Generated_Source\PSoC6\pdl\drivers/peripheral/dma/cy_dma.h **** *
1406:Generated_Source\PSoC6\pdl\drivers/peripheral/dma/cy_dma.h **** * \param descriptor
1407:Generated_Source\PSoC6\pdl\drivers/peripheral/dma/cy_dma.h **** * The descriptor structure instance declared by the user/component.
1408:Generated_Source\PSoC6\pdl\drivers/peripheral/dma/cy_dma.h **** *
1409:Generated_Source\PSoC6\pdl\drivers/peripheral/dma/cy_dma.h **** * \return
1410:Generated_Source\PSoC6\pdl\drivers/peripheral/dma/cy_dma.h **** * The value of the source increment. The range is -2048 ... 2047.
1411:Generated_Source\PSoC6\pdl\drivers/peripheral/dma/cy_dma.h **** *
1412:Generated_Source\PSoC6\pdl\drivers/peripheral/dma/cy_dma.h **** * \funcusage 
1413:Generated_Source\PSoC6\pdl\drivers/peripheral/dma/cy_dma.h **** * \snippet dma\2.10\snippet\main.c snippet_Cy_DMA_Descriptor_GetterFunctions
1414:Generated_Source\PSoC6\pdl\drivers/peripheral/dma/cy_dma.h **** *  
1415:Generated_Source\PSoC6\pdl\drivers/peripheral/dma/cy_dma.h **** *******************************************************************************/
1416:Generated_Source\PSoC6\pdl\drivers/peripheral/dma/cy_dma.h **** __STATIC_INLINE int32_t Cy_DMA_Descriptor_GetYloopSrcIncrement(cy_stc_dma_descriptor_t const * desc
1417:Generated_Source\PSoC6\pdl\drivers/peripheral/dma/cy_dma.h **** {
1418:Generated_Source\PSoC6\pdl\drivers/peripheral/dma/cy_dma.h ****     CY_ASSERT_L1(CY_DMA_2D_TRANSFER == Cy_DMA_Descriptor_GetDescriptorType(descriptor));
1419:Generated_Source\PSoC6\pdl\drivers/peripheral/dma/cy_dma.h ****     
1420:Generated_Source\PSoC6\pdl\drivers/peripheral/dma/cy_dma.h ****     return ((int32_t) _FLD2VAL(CY_DMA_CTL_SRC_INCR, descriptor->yCtl));
1421:Generated_Source\PSoC6\pdl\drivers/peripheral/dma/cy_dma.h **** }
1422:Generated_Source\PSoC6\pdl\drivers/peripheral/dma/cy_dma.h **** 
1423:Generated_Source\PSoC6\pdl\drivers/peripheral/dma/cy_dma.h **** 
1424:Generated_Source\PSoC6\pdl\drivers/peripheral/dma/cy_dma.h **** /*******************************************************************************
1425:Generated_Source\PSoC6\pdl\drivers/peripheral/dma/cy_dma.h **** * Function Name: Cy_DMA_Descriptor_SetYloopDstIncrement
1426:Generated_Source\PSoC6\pdl\drivers/peripheral/dma/cy_dma.h **** ****************************************************************************//**
1427:Generated_Source\PSoC6\pdl\drivers/peripheral/dma/cy_dma.h **** *
1428:Generated_Source\PSoC6\pdl\drivers/peripheral/dma/cy_dma.h **** * Sets the destination increment parameter for the Y loop of the specified
1429:Generated_Source\PSoC6\pdl\drivers/peripheral/dma/cy_dma.h **** * descriptor (for 2D descriptors only).
1430:Generated_Source\PSoC6\pdl\drivers/peripheral/dma/cy_dma.h **** *
1431:Generated_Source\PSoC6\pdl\drivers/peripheral/dma/cy_dma.h **** * \param descriptor
1432:Generated_Source\PSoC6\pdl\drivers/peripheral/dma/cy_dma.h **** * The descriptor structure instance declared by the user/component.
1433:Generated_Source\PSoC6\pdl\drivers/peripheral/dma/cy_dma.h **** *
1434:Generated_Source\PSoC6\pdl\drivers/peripheral/dma/cy_dma.h **** * \param dstYincrement
1435:Generated_Source\PSoC6\pdl\drivers/peripheral/dma/cy_dma.h **** * The value of the destination increment. The valid range is -2048 ... 2047.
1436:Generated_Source\PSoC6\pdl\drivers/peripheral/dma/cy_dma.h **** *
1437:Generated_Source\PSoC6\pdl\drivers/peripheral/dma/cy_dma.h **** * \funcusage 
1438:Generated_Source\PSoC6\pdl\drivers/peripheral/dma/cy_dma.h **** * \snippet dma\2.10\snippet\main.c snippet_Cy_DMA_Descriptor_SetterFunctions
1439:Generated_Source\PSoC6\pdl\drivers/peripheral/dma/cy_dma.h **** *
1440:Generated_Source\PSoC6\pdl\drivers/peripheral/dma/cy_dma.h **** *******************************************************************************/
1441:Generated_Source\PSoC6\pdl\drivers/peripheral/dma/cy_dma.h **** __STATIC_INLINE void Cy_DMA_Descriptor_SetYloopDstIncrement(cy_stc_dma_descriptor_t * descriptor, i
1442:Generated_Source\PSoC6\pdl\drivers/peripheral/dma/cy_dma.h **** {
1443:Generated_Source\PSoC6\pdl\drivers/peripheral/dma/cy_dma.h ****     CY_ASSERT_L1(CY_DMA_2D_TRANSFER == Cy_DMA_Descriptor_GetDescriptorType(descriptor));
1444:Generated_Source\PSoC6\pdl\drivers/peripheral/dma/cy_dma.h ****     CY_ASSERT_L2(CY_DMA_IS_LOOP_INCR_VALID(dstYincrement));
ARM GAS  C:\Users\stijn\AppData\Local\Temp\cc6b5yFd.s 			page 27


1445:Generated_Source\PSoC6\pdl\drivers/peripheral/dma/cy_dma.h ****     
1446:Generated_Source\PSoC6\pdl\drivers/peripheral/dma/cy_dma.h ****     CY_REG32_CLR_SET(descriptor->yCtl, CY_DMA_CTL_DST_INCR, dstYincrement);
1447:Generated_Source\PSoC6\pdl\drivers/peripheral/dma/cy_dma.h **** }
1448:Generated_Source\PSoC6\pdl\drivers/peripheral/dma/cy_dma.h **** 
1449:Generated_Source\PSoC6\pdl\drivers/peripheral/dma/cy_dma.h **** 
1450:Generated_Source\PSoC6\pdl\drivers/peripheral/dma/cy_dma.h **** /*******************************************************************************
1451:Generated_Source\PSoC6\pdl\drivers/peripheral/dma/cy_dma.h **** * Function Name: Cy_DMA_Descriptor_GetYloopDstIncrement
1452:Generated_Source\PSoC6\pdl\drivers/peripheral/dma/cy_dma.h **** ****************************************************************************//**
1453:Generated_Source\PSoC6\pdl\drivers/peripheral/dma/cy_dma.h **** *
1454:Generated_Source\PSoC6\pdl\drivers/peripheral/dma/cy_dma.h **** * Returns the destination increment parameter for the Y loop of the specified
1455:Generated_Source\PSoC6\pdl\drivers/peripheral/dma/cy_dma.h **** * descriptor (for 2D descriptors only). 
1456:Generated_Source\PSoC6\pdl\drivers/peripheral/dma/cy_dma.h **** *
1457:Generated_Source\PSoC6\pdl\drivers/peripheral/dma/cy_dma.h **** * \param descriptor
1458:Generated_Source\PSoC6\pdl\drivers/peripheral/dma/cy_dma.h **** * The descriptor structure instance declared by the user/component.
1459:Generated_Source\PSoC6\pdl\drivers/peripheral/dma/cy_dma.h **** *
1460:Generated_Source\PSoC6\pdl\drivers/peripheral/dma/cy_dma.h **** * \return
1461:Generated_Source\PSoC6\pdl\drivers/peripheral/dma/cy_dma.h **** * The value of the destination increment. The range is -2048 ... 2047.
1462:Generated_Source\PSoC6\pdl\drivers/peripheral/dma/cy_dma.h **** *
1463:Generated_Source\PSoC6\pdl\drivers/peripheral/dma/cy_dma.h **** * \funcusage 
1464:Generated_Source\PSoC6\pdl\drivers/peripheral/dma/cy_dma.h **** * \snippet dma\2.10\snippet\main.c snippet_Cy_DMA_Descriptor_GetterFunctions
1465:Generated_Source\PSoC6\pdl\drivers/peripheral/dma/cy_dma.h **** *  
1466:Generated_Source\PSoC6\pdl\drivers/peripheral/dma/cy_dma.h **** *******************************************************************************/
1467:Generated_Source\PSoC6\pdl\drivers/peripheral/dma/cy_dma.h **** __STATIC_INLINE int32_t Cy_DMA_Descriptor_GetYloopDstIncrement(cy_stc_dma_descriptor_t const * desc
1468:Generated_Source\PSoC6\pdl\drivers/peripheral/dma/cy_dma.h **** {
1469:Generated_Source\PSoC6\pdl\drivers/peripheral/dma/cy_dma.h ****     CY_ASSERT_L1(CY_DMA_2D_TRANSFER == Cy_DMA_Descriptor_GetDescriptorType(descriptor));
1470:Generated_Source\PSoC6\pdl\drivers/peripheral/dma/cy_dma.h ****     
1471:Generated_Source\PSoC6\pdl\drivers/peripheral/dma/cy_dma.h ****     return ((int32_t) _FLD2VAL(CY_DMA_CTL_DST_INCR, descriptor->yCtl));
1472:Generated_Source\PSoC6\pdl\drivers/peripheral/dma/cy_dma.h **** }
1473:Generated_Source\PSoC6\pdl\drivers/peripheral/dma/cy_dma.h **** 
1474:Generated_Source\PSoC6\pdl\drivers/peripheral/dma/cy_dma.h **** 
1475:Generated_Source\PSoC6\pdl\drivers/peripheral/dma/cy_dma.h **** /** \} group_dma_descriptor_functions */
1476:Generated_Source\PSoC6\pdl\drivers/peripheral/dma/cy_dma.h **** 
1477:Generated_Source\PSoC6\pdl\drivers/peripheral/dma/cy_dma.h **** 
1478:Generated_Source\PSoC6\pdl\drivers/peripheral/dma/cy_dma.h **** /**
1479:Generated_Source\PSoC6\pdl\drivers/peripheral/dma/cy_dma.h **** * \addtogroup group_dma_channel_functions
1480:Generated_Source\PSoC6\pdl\drivers/peripheral/dma/cy_dma.h **** * \{
1481:Generated_Source\PSoC6\pdl\drivers/peripheral/dma/cy_dma.h **** */
1482:Generated_Source\PSoC6\pdl\drivers/peripheral/dma/cy_dma.h **** 
1483:Generated_Source\PSoC6\pdl\drivers/peripheral/dma/cy_dma.h **** 
1484:Generated_Source\PSoC6\pdl\drivers/peripheral/dma/cy_dma.h **** /*******************************************************************************
1485:Generated_Source\PSoC6\pdl\drivers/peripheral/dma/cy_dma.h **** * Function Name: Cy_DMA_Channel_SetDescriptor
1486:Generated_Source\PSoC6\pdl\drivers/peripheral/dma/cy_dma.h **** ****************************************************************************//**
1487:Generated_Source\PSoC6\pdl\drivers/peripheral/dma/cy_dma.h **** *
1488:Generated_Source\PSoC6\pdl\drivers/peripheral/dma/cy_dma.h **** * Sets a descriptor as current for the specified DMA channel.
1489:Generated_Source\PSoC6\pdl\drivers/peripheral/dma/cy_dma.h **** *
1490:Generated_Source\PSoC6\pdl\drivers/peripheral/dma/cy_dma.h **** * \param base
1491:Generated_Source\PSoC6\pdl\drivers/peripheral/dma/cy_dma.h **** * The pointer to the hardware DMA block.
1492:Generated_Source\PSoC6\pdl\drivers/peripheral/dma/cy_dma.h **** *
1493:Generated_Source\PSoC6\pdl\drivers/peripheral/dma/cy_dma.h **** * \param channel
1494:Generated_Source\PSoC6\pdl\drivers/peripheral/dma/cy_dma.h **** * The channel number.
1495:Generated_Source\PSoC6\pdl\drivers/peripheral/dma/cy_dma.h **** *
1496:Generated_Source\PSoC6\pdl\drivers/peripheral/dma/cy_dma.h **** * \param descriptor
1497:Generated_Source\PSoC6\pdl\drivers/peripheral/dma/cy_dma.h **** * This is the descriptor to be associated with the channel.
1498:Generated_Source\PSoC6\pdl\drivers/peripheral/dma/cy_dma.h **** *
1499:Generated_Source\PSoC6\pdl\drivers/peripheral/dma/cy_dma.h **** * \funcusage 
1500:Generated_Source\PSoC6\pdl\drivers/peripheral/dma/cy_dma.h **** * \snippet dma\2.10\snippet\main.c snippet_Cy_DMA_Enable
1501:Generated_Source\PSoC6\pdl\drivers/peripheral/dma/cy_dma.h **** *
ARM GAS  C:\Users\stijn\AppData\Local\Temp\cc6b5yFd.s 			page 28


1502:Generated_Source\PSoC6\pdl\drivers/peripheral/dma/cy_dma.h **** *******************************************************************************/
1503:Generated_Source\PSoC6\pdl\drivers/peripheral/dma/cy_dma.h **** __STATIC_INLINE void Cy_DMA_Channel_SetDescriptor(DW_Type * base, uint32_t channel, cy_stc_dma_desc
1504:Generated_Source\PSoC6\pdl\drivers/peripheral/dma/cy_dma.h **** {
  33              		.loc 1 1504 0
  34              		.cfi_startproc
  35              		@ args = 0, pretend = 0, frame = 16
  36              		@ frame_needed = 1, uses_anonymous_args = 0
  37 0000 80B5     		push	{r7, lr}
  38              		.cfi_def_cfa_offset 8
  39              		.cfi_offset 7, -8
  40              		.cfi_offset 14, -4
  41 0002 84B0     		sub	sp, sp, #16
  42              		.cfi_def_cfa_offset 24
  43 0004 00AF     		add	r7, sp, #0
  44              		.cfi_def_cfa_register 7
  45 0006 F860     		str	r0, [r7, #12]
  46 0008 B960     		str	r1, [r7, #8]
  47 000a 7A60     		str	r2, [r7, #4]
1505:Generated_Source\PSoC6\pdl\drivers/peripheral/dma/cy_dma.h ****     CY_ASSERT_L1(CY_DMA_IS_CH_NR_VALID(channel));
  48              		.loc 1 1505 0
  49 000c 244B     		ldr	r3, .L3
  50 000e 1B68     		ldr	r3, [r3]
  51 0010 93F83330 		ldrb	r3, [r3, #51]	@ zero_extendqisi2
  52 0014 1A46     		mov	r2, r3
  53 0016 BB68     		ldr	r3, [r7, #8]
  54 0018 9A42     		cmp	r2, r3
  55 001a 04D8     		bhi	.L2
  56              		.loc 1 1505 0 is_stmt 0 discriminator 1
  57 001c 40F2E151 		movw	r1, #1505
  58 0020 2048     		ldr	r0, .L3+4
  59 0022 FFF7FEFF 		bl	Cy_SysLib_AssertFailed
  60              	.L2:
1506:Generated_Source\PSoC6\pdl\drivers/peripheral/dma/cy_dma.h ****     
1507:Generated_Source\PSoC6\pdl\drivers/peripheral/dma/cy_dma.h ****     DW_CH_CURR_PTR(base, channel) = (uint32_t)descriptor;
  61              		.loc 1 1507 0 is_stmt 1
  62 0026 1E4B     		ldr	r3, .L3
  63 0028 1B68     		ldr	r3, [r3]
  64 002a B3F85A30 		ldrh	r3, [r3, #90]
  65 002e 1A46     		mov	r2, r3
  66 0030 FB68     		ldr	r3, [r7, #12]
  67 0032 1A44     		add	r2, r2, r3
  68 0034 1A4B     		ldr	r3, .L3
  69 0036 1B68     		ldr	r3, [r3]
  70 0038 B3F85C30 		ldrh	r3, [r3, #92]
  71 003c 1946     		mov	r1, r3
  72 003e BB68     		ldr	r3, [r7, #8]
  73 0040 03FB01F3 		mul	r3, r3, r1
  74 0044 1344     		add	r3, r3, r2
  75 0046 1A46     		mov	r2, r3
  76 0048 7B68     		ldr	r3, [r7, #4]
  77 004a D360     		str	r3, [r2, #12]
1508:Generated_Source\PSoC6\pdl\drivers/peripheral/dma/cy_dma.h ****     DW_CH_IDX(base, channel) &= (uint32_t) ~(DW_CH_STRUCT_CH_IDX_X_IDX_Msk | DW_CH_STRUCT_CH_IDX_Y_
  78              		.loc 1 1508 0
  79 004c 144B     		ldr	r3, .L3
  80 004e 1B68     		ldr	r3, [r3]
  81 0050 B3F85A30 		ldrh	r3, [r3, #90]
  82 0054 1A46     		mov	r2, r3
ARM GAS  C:\Users\stijn\AppData\Local\Temp\cc6b5yFd.s 			page 29


  83 0056 FB68     		ldr	r3, [r7, #12]
  84 0058 1A44     		add	r2, r2, r3
  85 005a 114B     		ldr	r3, .L3
  86 005c 1B68     		ldr	r3, [r3]
  87 005e B3F85C30 		ldrh	r3, [r3, #92]
  88 0062 1946     		mov	r1, r3
  89 0064 BB68     		ldr	r3, [r7, #8]
  90 0066 03FB01F3 		mul	r3, r3, r1
  91 006a 1344     		add	r3, r3, r2
  92 006c 1946     		mov	r1, r3
  93 006e 0C4B     		ldr	r3, .L3
  94 0070 1B68     		ldr	r3, [r3]
  95 0072 B3F85A30 		ldrh	r3, [r3, #90]
  96 0076 1A46     		mov	r2, r3
  97 0078 FB68     		ldr	r3, [r7, #12]
  98 007a 1A44     		add	r2, r2, r3
  99 007c 084B     		ldr	r3, .L3
 100 007e 1B68     		ldr	r3, [r3]
 101 0080 B3F85C30 		ldrh	r3, [r3, #92]
 102 0084 1846     		mov	r0, r3
 103 0086 BB68     		ldr	r3, [r7, #8]
 104 0088 03FB00F3 		mul	r3, r3, r0
 105 008c 1344     		add	r3, r3, r2
 106 008e 9B68     		ldr	r3, [r3, #8]
 107 0090 1B0C     		lsrs	r3, r3, #16
 108 0092 1B04     		lsls	r3, r3, #16
 109 0094 8B60     		str	r3, [r1, #8]
1509:Generated_Source\PSoC6\pdl\drivers/peripheral/dma/cy_dma.h **** }
 110              		.loc 1 1509 0
 111 0096 00BF     		nop
 112 0098 1037     		adds	r7, r7, #16
 113              		.cfi_def_cfa_offset 8
 114 009a BD46     		mov	sp, r7
 115              		.cfi_def_cfa_register 13
 116              		@ sp needed
 117 009c 80BD     		pop	{r7, pc}
 118              	.L4:
 119 009e 00BF     		.align	2
 120              	.L3:
 121 00a0 00000000 		.word	cy_device
 122 00a4 00000000 		.word	.LC0
 123              		.cfi_endproc
 124              	.LFE170:
 125              		.size	Cy_DMA_Channel_SetDescriptor, .-Cy_DMA_Channel_SetDescriptor
 126              		.section	.text.Cy_DMA_Channel_Enable,"ax",%progbits
 127              		.align	2
 128              		.thumb
 129              		.thumb_func
 130              		.type	Cy_DMA_Channel_Enable, %function
 131              	Cy_DMA_Channel_Enable:
 132              	.LFB171:
1510:Generated_Source\PSoC6\pdl\drivers/peripheral/dma/cy_dma.h **** 
1511:Generated_Source\PSoC6\pdl\drivers/peripheral/dma/cy_dma.h **** 
1512:Generated_Source\PSoC6\pdl\drivers/peripheral/dma/cy_dma.h **** /*******************************************************************************
1513:Generated_Source\PSoC6\pdl\drivers/peripheral/dma/cy_dma.h **** * Function Name: Cy_DMA_Channel_Enable
1514:Generated_Source\PSoC6\pdl\drivers/peripheral/dma/cy_dma.h **** ****************************************************************************//**
1515:Generated_Source\PSoC6\pdl\drivers/peripheral/dma/cy_dma.h **** *
ARM GAS  C:\Users\stijn\AppData\Local\Temp\cc6b5yFd.s 			page 30


1516:Generated_Source\PSoC6\pdl\drivers/peripheral/dma/cy_dma.h **** * The function is used to enable a DMA channel.
1517:Generated_Source\PSoC6\pdl\drivers/peripheral/dma/cy_dma.h **** *
1518:Generated_Source\PSoC6\pdl\drivers/peripheral/dma/cy_dma.h **** * \param base
1519:Generated_Source\PSoC6\pdl\drivers/peripheral/dma/cy_dma.h **** * The pointer to the hardware DMA block.
1520:Generated_Source\PSoC6\pdl\drivers/peripheral/dma/cy_dma.h **** *
1521:Generated_Source\PSoC6\pdl\drivers/peripheral/dma/cy_dma.h **** * \param channel
1522:Generated_Source\PSoC6\pdl\drivers/peripheral/dma/cy_dma.h **** * The  channel number.
1523:Generated_Source\PSoC6\pdl\drivers/peripheral/dma/cy_dma.h **** *
1524:Generated_Source\PSoC6\pdl\drivers/peripheral/dma/cy_dma.h **** * \funcusage 
1525:Generated_Source\PSoC6\pdl\drivers/peripheral/dma/cy_dma.h **** * \snippet dma\2.10\snippet\main.c snippet_Cy_DMA_Enable
1526:Generated_Source\PSoC6\pdl\drivers/peripheral/dma/cy_dma.h **** *
1527:Generated_Source\PSoC6\pdl\drivers/peripheral/dma/cy_dma.h **** *******************************************************************************/
1528:Generated_Source\PSoC6\pdl\drivers/peripheral/dma/cy_dma.h **** __STATIC_INLINE void Cy_DMA_Channel_Enable(DW_Type * base, uint32_t channel)
1529:Generated_Source\PSoC6\pdl\drivers/peripheral/dma/cy_dma.h **** {
 133              		.loc 1 1529 0
 134              		.cfi_startproc
 135              		@ args = 0, pretend = 0, frame = 8
 136              		@ frame_needed = 1, uses_anonymous_args = 0
 137 0000 80B5     		push	{r7, lr}
 138              		.cfi_def_cfa_offset 8
 139              		.cfi_offset 7, -8
 140              		.cfi_offset 14, -4
 141 0002 82B0     		sub	sp, sp, #8
 142              		.cfi_def_cfa_offset 16
 143 0004 00AF     		add	r7, sp, #0
 144              		.cfi_def_cfa_register 7
 145 0006 7860     		str	r0, [r7, #4]
 146 0008 3960     		str	r1, [r7]
1530:Generated_Source\PSoC6\pdl\drivers/peripheral/dma/cy_dma.h ****     CY_ASSERT_L1(CY_DMA_IS_CH_NR_VALID(channel));
 147              		.loc 1 1530 0
 148 000a 1B4B     		ldr	r3, .L7
 149 000c 1B68     		ldr	r3, [r3]
 150 000e 93F83330 		ldrb	r3, [r3, #51]	@ zero_extendqisi2
 151 0012 1A46     		mov	r2, r3
 152 0014 3B68     		ldr	r3, [r7]
 153 0016 9A42     		cmp	r2, r3
 154 0018 04D8     		bhi	.L6
 155              		.loc 1 1530 0 is_stmt 0 discriminator 1
 156 001a 40F2FA51 		movw	r1, #1530
 157 001e 1748     		ldr	r0, .L7+4
 158 0020 FFF7FEFF 		bl	Cy_SysLib_AssertFailed
 159              	.L6:
1531:Generated_Source\PSoC6\pdl\drivers/peripheral/dma/cy_dma.h ****     
1532:Generated_Source\PSoC6\pdl\drivers/peripheral/dma/cy_dma.h ****     DW_CH_CTL(base, channel) |= DW_CH_STRUCT_CH_CTL_ENABLED_Msk;
 160              		.loc 1 1532 0 is_stmt 1
 161 0024 144B     		ldr	r3, .L7
 162 0026 1B68     		ldr	r3, [r3]
 163 0028 B3F85A30 		ldrh	r3, [r3, #90]
 164 002c 1A46     		mov	r2, r3
 165 002e 7B68     		ldr	r3, [r7, #4]
 166 0030 1A44     		add	r2, r2, r3
 167 0032 114B     		ldr	r3, .L7
 168 0034 1B68     		ldr	r3, [r3]
 169 0036 B3F85C30 		ldrh	r3, [r3, #92]
 170 003a 1946     		mov	r1, r3
 171 003c 3B68     		ldr	r3, [r7]
 172 003e 03FB01F3 		mul	r3, r3, r1
ARM GAS  C:\Users\stijn\AppData\Local\Temp\cc6b5yFd.s 			page 31


 173 0042 1344     		add	r3, r3, r2
 174 0044 1946     		mov	r1, r3
 175 0046 0C4B     		ldr	r3, .L7
 176 0048 1B68     		ldr	r3, [r3]
 177 004a B3F85A30 		ldrh	r3, [r3, #90]
 178 004e 1A46     		mov	r2, r3
 179 0050 7B68     		ldr	r3, [r7, #4]
 180 0052 1A44     		add	r2, r2, r3
 181 0054 084B     		ldr	r3, .L7
 182 0056 1B68     		ldr	r3, [r3]
 183 0058 B3F85C30 		ldrh	r3, [r3, #92]
 184 005c 1846     		mov	r0, r3
 185 005e 3B68     		ldr	r3, [r7]
 186 0060 03FB00F3 		mul	r3, r3, r0
 187 0064 1344     		add	r3, r3, r2
 188 0066 1B68     		ldr	r3, [r3]
 189 0068 43F00043 		orr	r3, r3, #-2147483648
 190 006c 0B60     		str	r3, [r1]
1533:Generated_Source\PSoC6\pdl\drivers/peripheral/dma/cy_dma.h **** }
 191              		.loc 1 1533 0
 192 006e 00BF     		nop
 193 0070 0837     		adds	r7, r7, #8
 194              		.cfi_def_cfa_offset 8
 195 0072 BD46     		mov	sp, r7
 196              		.cfi_def_cfa_register 13
 197              		@ sp needed
 198 0074 80BD     		pop	{r7, pc}
 199              	.L8:
 200 0076 00BF     		.align	2
 201              	.L7:
 202 0078 00000000 		.word	cy_device
 203 007c 00000000 		.word	.LC0
 204              		.cfi_endproc
 205              	.LFE171:
 206              		.size	Cy_DMA_Channel_Enable, .-Cy_DMA_Channel_Enable
 207              		.bss
 208              		.align	1
 209              	result:
 210 0000 0000     		.space	2
 211              	dataReady:
 212 0002 00       		.space	1
 213              		.comm	bufferADC0,4100,4
 214              		.comm	bufferADC1,4100,4
 215              		.comm	bufferADC2,4100,4
 216              		.comm	bufferADC3,4100,4
 217 0003 00       		.align	2
 218              	sensor:
 219 0004 00000000 		.space	4
 220              	sending:
 221 0008 00       		.space	1
 222              		.comm	writebuffer,2,4
 223              		.comm	readBuffer,6,4
 224              		.comm	bufferAccelero,6146,4
 225              		.comm	bufferTemp,4,4
 226              		.comm	bufferHumid,4,4
 227              		.section	.text.initSI7021,"ax",%progbits
 228              		.align	2
ARM GAS  C:\Users\stijn\AppData\Local\Temp\cc6b5yFd.s 			page 32


 229              		.global	initSI7021
 230              		.thumb
 231              		.thumb_func
 232              		.type	initSI7021, %function
 233              	initSI7021:
 234              	.LFB1098:
 235              		.file 2 "Si7021.c"
   1:Si7021.c      **** /*  ____  ____      _    __  __  ____ ___
   2:Si7021.c      ****  * |  _ \|  _ \    / \  |  \/  |/ ___/ _ \
   3:Si7021.c      ****  * | | | | |_) |  / _ \ | |\/| | |  | | | |
   4:Si7021.c      ****  * | |_| |  _ <  / ___ \| |  | | |__| |_| |
   5:Si7021.c      ****  * |____/|_| \_\/_/   \_\_|  |_|\____\___/
   6:Si7021.c      ****  *                           research group
   7:Si7021.c      ****  *                             dramco.be/
   8:Si7021.c      ****  *
   9:Si7021.c      ****  *  KU Leuven - Technology Campus Gent,
  10:Si7021.c      ****  *  Gebroeders De Smetstraat 1,
  11:Si7021.c      ****  *  B-9000 Gent, Belgium
  12:Si7021.c      ****  *
  13:Si7021.c      ****  *         File: Si7021.c
  14:Si7021.c      ****  *      Created: 2019-07-15
  15:Si7021.c      ****  *       Author: Stijn Crul
  16:Si7021.c      ****  *      Version: 0.1
  17:Si7021.c      ****  *
  18:Si7021.c      ****  *  Description: Si7021 library for PSOC6 including its I2C functions
  19:Si7021.c      ****  */
  20:Si7021.c      **** 
  21:Si7021.c      **** #include "project.h"
  22:Si7021.c      **** #include "Si7021.h"
  23:Si7021.c      **** #include "i2c.h"
  24:Si7021.c      **** #include "FreeRTOS.h"
  25:Si7021.c      **** #include "task.h"
  26:Si7021.c      **** #include "stdio.h"
  27:Si7021.c      **** 
  28:Si7021.c      **** /* 
  29:Si7021.c      **** * Name: initSI7021 
  30:Si7021.c      **** * Description: Setup up the Si7021 by resetting it
  31:Si7021.c      **** *
  32:Si7021.c      **** * Arguments:    cy_stc_scb_i2c_master_xfer_config_t masterTransferCfg = psoc I2C settings
  33:Si7021.c      **** * Output:       uint8_t status
  34:Si7021.c      **** */
  35:Si7021.c      **** uint8_t initSI7021(cy_stc_scb_i2c_master_xfer_config_t masterTransferCfg){
 236              		.loc 2 35 0
 237              		.cfi_startproc
 238              		@ args = 0, pretend = 0, frame = 24
 239              		@ frame_needed = 1, uses_anonymous_args = 0
 240 0000 90B5     		push	{r4, r7, lr}
 241              		.cfi_def_cfa_offset 12
 242              		.cfi_offset 4, -12
 243              		.cfi_offset 7, -8
 244              		.cfi_offset 14, -4
 245 0002 8BB0     		sub	sp, sp, #44
 246              		.cfi_def_cfa_offset 56
 247 0004 04AF     		add	r7, sp, #16
 248              		.cfi_def_cfa 7, 40
 249 0006 3C46     		mov	r4, r7
 250 0008 84E80F00 		stmia	r4, {r0, r1, r2, r3}
ARM GAS  C:\Users\stijn\AppData\Local\Temp\cc6b5yFd.s 			page 33


  36:Si7021.c      ****     masterTransferCfg.slaveAddress = SI7021_DEFAULT_ADDRESS;
 251              		.loc 2 36 0
 252 000c 4023     		movs	r3, #64
 253 000e 3B70     		strb	r3, [r7]
  37:Si7021.c      ****     uint8_t status = TRANSFER_ERROR; 
 254              		.loc 2 37 0
 255 0010 FF23     		movs	r3, #255
 256 0012 FB75     		strb	r3, [r7, #23]
  38:Si7021.c      ****     uint8_t msg[WRITE_PACKET_SIZE] = {SI7021_RESET_CMD};
 257              		.loc 2 38 0
 258 0014 0023     		movs	r3, #0
 259 0016 BB82     		strh	r3, [r7, #20]	@ movhi
 260 0018 FE23     		movs	r3, #254
 261 001a 3B75     		strb	r3, [r7, #20]
  39:Si7021.c      ****     
  40:Si7021.c      ****     status = WriteCommandPacketToI2C(masterTransferCfg, SI7021_DEFAULT_ADDRESS, msg, 1);
 262              		.loc 2 40 0
 263 001c 0123     		movs	r3, #1
 264 001e 0293     		str	r3, [sp, #8]
 265 0020 07F11403 		add	r3, r7, #20
 266 0024 0193     		str	r3, [sp, #4]
 267 0026 4023     		movs	r3, #64
 268 0028 0093     		str	r3, [sp]
 269 002a 3B46     		mov	r3, r7
 270 002c 0FCB     		ldmia	r3, {r0, r1, r2, r3}
 271 002e FFF7FEFF 		bl	WriteCommandPacketToI2C
 272 0032 0346     		mov	r3, r0
 273 0034 FB75     		strb	r3, [r7, #23]
  41:Si7021.c      ****     CyDelay(50);
 274              		.loc 2 41 0
 275 0036 3220     		movs	r0, #50
 276 0038 FFF7FEFF 		bl	Cy_SysLib_Delay
  42:Si7021.c      ****     
  43:Si7021.c      ****     // check if working
  44:Si7021.c      ****     msg[0] = SI7021_READRHT_REG_CMD;
 277              		.loc 2 44 0
 278 003c E723     		movs	r3, #231
 279 003e 3B75     		strb	r3, [r7, #20]
  45:Si7021.c      ****     if(TRANSFER_CMPLT == WriteCommandPacketToI2C(masterTransferCfg, SI7021_DEFAULT_ADDRESS, msg, 1)
 280              		.loc 2 45 0
 281 0040 0123     		movs	r3, #1
 282 0042 0293     		str	r3, [sp, #8]
 283 0044 07F11403 		add	r3, r7, #20
 284 0048 0193     		str	r3, [sp, #4]
 285 004a 4023     		movs	r3, #64
 286 004c 0093     		str	r3, [sp]
 287 004e 3B46     		mov	r3, r7
 288 0050 0FCB     		ldmia	r3, {r0, r1, r2, r3}
 289 0052 FFF7FEFF 		bl	WriteCommandPacketToI2C
 290 0056 0346     		mov	r3, r0
 291 0058 002B     		cmp	r3, #0
 292 005a 09D1     		bne	.L10
  46:Si7021.c      ****         status = ReadStatusPacketFromI2C(masterTransferCfg, SI7021_DEFAULT_ADDRESS, 1);
 293              		.loc 2 46 0
 294 005c 0123     		movs	r3, #1
 295 005e 0193     		str	r3, [sp, #4]
 296 0060 4023     		movs	r3, #64
ARM GAS  C:\Users\stijn\AppData\Local\Temp\cc6b5yFd.s 			page 34


 297 0062 0093     		str	r3, [sp]
 298 0064 3B46     		mov	r3, r7
 299 0066 0FCB     		ldmia	r3, {r0, r1, r2, r3}
 300 0068 FFF7FEFF 		bl	ReadStatusPacketFromI2C
 301 006c 0346     		mov	r3, r0
 302 006e FB75     		strb	r3, [r7, #23]
 303              	.L10:
  47:Si7021.c      ****         if(0x3A != ((uint16_t)readBuffer[0])){
  48:Si7021.c      ****             // todo, sensor not detected, fix
  49:Si7021.c      ****         }
  50:Si7021.c      ****     }
  51:Si7021.c      ****     
  52:Si7021.c      ****     // readSerialNumber
  53:Si7021.c      ****     readSerial(masterTransferCfg);
 304              		.loc 2 53 0
 305 0070 3B46     		mov	r3, r7
 306 0072 0FCB     		ldmia	r3, {r0, r1, r2, r3}
 307 0074 FFF7FEFF 		bl	readSerial
  54:Si7021.c      ****     
  55:Si7021.c      ****     // read revision
  56:Si7021.c      ****     
  57:Si7021.c      ****     return status;
 308              		.loc 2 57 0
 309 0078 FB7D     		ldrb	r3, [r7, #23]	@ zero_extendqisi2
  58:Si7021.c      **** }
 310              		.loc 2 58 0
 311 007a 1846     		mov	r0, r3
 312 007c 1C37     		adds	r7, r7, #28
 313              		.cfi_def_cfa_offset 12
 314 007e BD46     		mov	sp, r7
 315              		.cfi_def_cfa_register 13
 316              		@ sp needed
 317 0080 90BD     		pop	{r4, r7, pc}
 318              		.cfi_endproc
 319              	.LFE1098:
 320              		.size	initSI7021, .-initSI7021
 321 0082 00BF     		.section	.text.readTemp,"ax",%progbits
 322              		.align	2
 323              		.global	readTemp
 324              		.thumb
 325              		.thumb_func
 326              		.type	readTemp, %function
 327              	readTemp:
 328              	.LFB1099:
  59:Si7021.c      **** 
  60:Si7021.c      **** /* 
  61:Si7021.c      **** * Function: readTemp  
  62:Si7021.c      **** * Description: Read values from Si7021 after it has been setup
  63:Si7021.c      **** *
  64:Si7021.c      **** * Arguments:  cy_stc_scb_i2c_master_xfer_config_t masterTransferCfg = psoc I2C settings
  65:Si7021.c      **** * Output:     uint8_t status
  66:Si7021.c      **** */
  67:Si7021.c      **** uint8_t readTemp(cy_stc_scb_i2c_master_xfer_config_t masterTransferCfg){
 329              		.loc 2 67 0
 330              		.cfi_startproc
 331              		@ args = 0, pretend = 0, frame = 24
 332              		@ frame_needed = 1, uses_anonymous_args = 0
ARM GAS  C:\Users\stijn\AppData\Local\Temp\cc6b5yFd.s 			page 35


 333 0000 90B5     		push	{r4, r7, lr}
 334              		.cfi_def_cfa_offset 12
 335              		.cfi_offset 4, -12
 336              		.cfi_offset 7, -8
 337              		.cfi_offset 14, -4
 338 0002 8BB0     		sub	sp, sp, #44
 339              		.cfi_def_cfa_offset 56
 340 0004 04AF     		add	r7, sp, #16
 341              		.cfi_def_cfa 7, 40
 342 0006 3C46     		mov	r4, r7
 343 0008 84E80F00 		stmia	r4, {r0, r1, r2, r3}
  68:Si7021.c      ****     masterTransferCfg.slaveAddress = SI7021_DEFAULT_ADDRESS;
 344              		.loc 2 68 0
 345 000c 4023     		movs	r3, #64
 346 000e 3B70     		strb	r3, [r7]
  69:Si7021.c      ****     uint8_t status = TRANSFER_ERROR;
 347              		.loc 2 69 0
 348 0010 FF23     		movs	r3, #255
 349 0012 FB75     		strb	r3, [r7, #23]
  70:Si7021.c      ****     uint8_t msg[WRITE_PACKET_SIZE];
  71:Si7021.c      ****     msg[0] = (SI7021_MEASTEMP_NOHOLD_CMD);
 350              		.loc 2 71 0
 351 0014 F323     		movs	r3, #243
 352 0016 3B75     		strb	r3, [r7, #20]
  72:Si7021.c      ****     
  73:Si7021.c      ****     if(TRANSFER_CMPLT == WriteCommandPacketToI2C(masterTransferCfg, SI7021_DEFAULT_ADDRESS, msg, 1)
 353              		.loc 2 73 0
 354 0018 0123     		movs	r3, #1
 355 001a 0293     		str	r3, [sp, #8]
 356 001c 07F11403 		add	r3, r7, #20
 357 0020 0193     		str	r3, [sp, #4]
 358 0022 4023     		movs	r3, #64
 359 0024 0093     		str	r3, [sp]
 360 0026 3B46     		mov	r3, r7
 361 0028 0FCB     		ldmia	r3, {r0, r1, r2, r3}
 362 002a FFF7FEFF 		bl	WriteCommandPacketToI2C
 363 002e 0346     		mov	r3, r0
 364 0030 002B     		cmp	r3, #0
 365 0032 0CD1     		bne	.L13
  74:Si7021.c      ****         CyDelay(20); // wait for sensor to take a sample
 366              		.loc 2 74 0
 367 0034 1420     		movs	r0, #20
 368 0036 FFF7FEFF 		bl	Cy_SysLib_Delay
  75:Si7021.c      ****         status = ReadStatusPacketFromI2C(masterTransferCfg, SI7021_DEFAULT_ADDRESS, 3); // read 3 b
 369              		.loc 2 75 0
 370 003a 0323     		movs	r3, #3
 371 003c 0193     		str	r3, [sp, #4]
 372 003e 4023     		movs	r3, #64
 373 0040 0093     		str	r3, [sp]
 374 0042 3B46     		mov	r3, r7
 375 0044 0FCB     		ldmia	r3, {r0, r1, r2, r3}
 376 0046 FFF7FEFF 		bl	ReadStatusPacketFromI2C
 377 004a 0346     		mov	r3, r0
 378 004c FB75     		strb	r3, [r7, #23]
 379              	.L13:
  76:Si7021.c      ****         // todo: Do something with read data
  77:Si7021.c      ****     }
ARM GAS  C:\Users\stijn\AppData\Local\Temp\cc6b5yFd.s 			page 36


  78:Si7021.c      ****     
  79:Si7021.c      ****     return status;
 380              		.loc 2 79 0
 381 004e FB7D     		ldrb	r3, [r7, #23]	@ zero_extendqisi2
  80:Si7021.c      **** }
 382              		.loc 2 80 0
 383 0050 1846     		mov	r0, r3
 384 0052 1C37     		adds	r7, r7, #28
 385              		.cfi_def_cfa_offset 12
 386 0054 BD46     		mov	sp, r7
 387              		.cfi_def_cfa_register 13
 388              		@ sp needed
 389 0056 90BD     		pop	{r4, r7, pc}
 390              		.cfi_endproc
 391              	.LFE1099:
 392              		.size	readTemp, .-readTemp
 393              		.section	.text.readHumidity,"ax",%progbits
 394              		.align	2
 395              		.global	readHumidity
 396              		.thumb
 397              		.thumb_func
 398              		.type	readHumidity, %function
 399              	readHumidity:
 400              	.LFB1100:
  81:Si7021.c      **** 
  82:Si7021.c      **** /* 
  83:Si7021.c      **** * Function: readHumidity  
  84:Si7021.c      **** * Description: Read values from Si7021 after it has been setup
  85:Si7021.c      **** *
  86:Si7021.c      **** * Arguments:  cy_stc_scb_i2c_master_xfer_config_t masterTransferCfg = psoc I2C settings
  87:Si7021.c      **** * Output:     uint8_t status
  88:Si7021.c      **** */
  89:Si7021.c      **** uint8_t readHumidity(cy_stc_scb_i2c_master_xfer_config_t masterTransferCfg){
 401              		.loc 2 89 0
 402              		.cfi_startproc
 403              		@ args = 0, pretend = 0, frame = 24
 404              		@ frame_needed = 1, uses_anonymous_args = 0
 405 0000 90B5     		push	{r4, r7, lr}
 406              		.cfi_def_cfa_offset 12
 407              		.cfi_offset 4, -12
 408              		.cfi_offset 7, -8
 409              		.cfi_offset 14, -4
 410 0002 8BB0     		sub	sp, sp, #44
 411              		.cfi_def_cfa_offset 56
 412 0004 04AF     		add	r7, sp, #16
 413              		.cfi_def_cfa 7, 40
 414 0006 3C46     		mov	r4, r7
 415 0008 84E80F00 		stmia	r4, {r0, r1, r2, r3}
  90:Si7021.c      ****     masterTransferCfg.slaveAddress = SI7021_DEFAULT_ADDRESS;
 416              		.loc 2 90 0
 417 000c 4023     		movs	r3, #64
 418 000e 3B70     		strb	r3, [r7]
  91:Si7021.c      ****     uint8_t status = TRANSFER_ERROR;
 419              		.loc 2 91 0
 420 0010 FF23     		movs	r3, #255
 421 0012 FB75     		strb	r3, [r7, #23]
  92:Si7021.c      ****     uint8_t msg[WRITE_PACKET_SIZE];
ARM GAS  C:\Users\stijn\AppData\Local\Temp\cc6b5yFd.s 			page 37


  93:Si7021.c      ****     msg[0] = (SI7021_MEASRH_NOHOLD_CMD);
 422              		.loc 2 93 0
 423 0014 F523     		movs	r3, #245
 424 0016 3B75     		strb	r3, [r7, #20]
  94:Si7021.c      ****     
  95:Si7021.c      ****     if(TRANSFER_CMPLT == WriteCommandPacketToI2C(masterTransferCfg, SI7021_DEFAULT_ADDRESS, msg, 1)
 425              		.loc 2 95 0
 426 0018 0123     		movs	r3, #1
 427 001a 0293     		str	r3, [sp, #8]
 428 001c 07F11403 		add	r3, r7, #20
 429 0020 0193     		str	r3, [sp, #4]
 430 0022 4023     		movs	r3, #64
 431 0024 0093     		str	r3, [sp]
 432 0026 3B46     		mov	r3, r7
 433 0028 0FCB     		ldmia	r3, {r0, r1, r2, r3}
 434 002a FFF7FEFF 		bl	WriteCommandPacketToI2C
 435 002e 0346     		mov	r3, r0
 436 0030 002B     		cmp	r3, #0
 437 0032 0CD1     		bne	.L16
  96:Si7021.c      ****         CyDelay(20); // wait for sensor to take a sample
 438              		.loc 2 96 0
 439 0034 1420     		movs	r0, #20
 440 0036 FFF7FEFF 		bl	Cy_SysLib_Delay
  97:Si7021.c      ****         status = ReadStatusPacketFromI2C(masterTransferCfg, SI7021_DEFAULT_ADDRESS, 3); // read 3 b
 441              		.loc 2 97 0
 442 003a 0323     		movs	r3, #3
 443 003c 0193     		str	r3, [sp, #4]
 444 003e 4023     		movs	r3, #64
 445 0040 0093     		str	r3, [sp]
 446 0042 3B46     		mov	r3, r7
 447 0044 0FCB     		ldmia	r3, {r0, r1, r2, r3}
 448 0046 FFF7FEFF 		bl	ReadStatusPacketFromI2C
 449 004a 0346     		mov	r3, r0
 450 004c FB75     		strb	r3, [r7, #23]
 451              	.L16:
  98:Si7021.c      ****         // todo: Do something with read data
  99:Si7021.c      ****     }
 100:Si7021.c      ****     
 101:Si7021.c      ****     return status;
 452              		.loc 2 101 0
 453 004e FB7D     		ldrb	r3, [r7, #23]	@ zero_extendqisi2
 102:Si7021.c      **** }
 454              		.loc 2 102 0
 455 0050 1846     		mov	r0, r3
 456 0052 1C37     		adds	r7, r7, #28
 457              		.cfi_def_cfa_offset 12
 458 0054 BD46     		mov	sp, r7
 459              		.cfi_def_cfa_register 13
 460              		@ sp needed
 461 0056 90BD     		pop	{r4, r7, pc}
 462              		.cfi_endproc
 463              	.LFE1100:
 464              		.size	readHumidity, .-readHumidity
 465              		.section	.text.readSerial,"ax",%progbits
 466              		.align	2
 467              		.global	readSerial
 468              		.thumb
ARM GAS  C:\Users\stijn\AppData\Local\Temp\cc6b5yFd.s 			page 38


 469              		.thumb_func
 470              		.type	readSerial, %function
 471              	readSerial:
 472              	.LFB1101:
 103:Si7021.c      **** 
 104:Si7021.c      **** /* 
 105:Si7021.c      **** * Function: readSerial 
 106:Si7021.c      **** * Description: Read values from Si7021 after it has been setup
 107:Si7021.c      **** *
 108:Si7021.c      **** * Arguments:  cy_stc_scb_i2c_master_xfer_config_t masterTransferCfg = psoc I2C settings
 109:Si7021.c      **** * Output:     uint8_t status
 110:Si7021.c      **** */
 111:Si7021.c      **** uint8_t readSerial(cy_stc_scb_i2c_master_xfer_config_t masterTransferCfg){
 473              		.loc 2 111 0
 474              		.cfi_startproc
 475              		@ args = 0, pretend = 0, frame = 24
 476              		@ frame_needed = 1, uses_anonymous_args = 0
 477 0000 90B5     		push	{r4, r7, lr}
 478              		.cfi_def_cfa_offset 12
 479              		.cfi_offset 4, -12
 480              		.cfi_offset 7, -8
 481              		.cfi_offset 14, -4
 482 0002 8BB0     		sub	sp, sp, #44
 483              		.cfi_def_cfa_offset 56
 484 0004 04AF     		add	r7, sp, #16
 485              		.cfi_def_cfa 7, 40
 486 0006 3C46     		mov	r4, r7
 487 0008 84E80F00 		stmia	r4, {r0, r1, r2, r3}
 112:Si7021.c      ****     masterTransferCfg.slaveAddress = SI7021_DEFAULT_ADDRESS;
 488              		.loc 2 112 0
 489 000c 4023     		movs	r3, #64
 490 000e 3B70     		strb	r3, [r7]
 113:Si7021.c      ****     uint8_t status = TRANSFER_ERROR;
 491              		.loc 2 113 0
 492 0010 FF23     		movs	r3, #255
 493 0012 FB75     		strb	r3, [r7, #23]
 114:Si7021.c      ****     uint8_t msg[WRITE_PACKET_SIZE];
 115:Si7021.c      ****     msg[0] = (SI7021_ID1_CMD >> 8);
 494              		.loc 2 115 0
 495 0014 FA23     		movs	r3, #250
 496 0016 3B75     		strb	r3, [r7, #20]
 116:Si7021.c      ****     msg[1] = (SI7021_ID1_CMD & 0xFF);
 497              		.loc 2 116 0
 498 0018 0F23     		movs	r3, #15
 499 001a 7B75     		strb	r3, [r7, #21]
 117:Si7021.c      ****     
 118:Si7021.c      ****     if(TRANSFER_CMPLT == WriteCommandPacketToI2C(masterTransferCfg, SI7021_DEFAULT_ADDRESS, msg, 2)
 500              		.loc 2 118 0
 501 001c 0223     		movs	r3, #2
 502 001e 0293     		str	r3, [sp, #8]
 503 0020 07F11403 		add	r3, r7, #20
 504 0024 0193     		str	r3, [sp, #4]
 505 0026 4023     		movs	r3, #64
 506 0028 0093     		str	r3, [sp]
 507 002a 3B46     		mov	r3, r7
 508 002c 0FCB     		ldmia	r3, {r0, r1, r2, r3}
 509 002e FFF7FEFF 		bl	WriteCommandPacketToI2C
ARM GAS  C:\Users\stijn\AppData\Local\Temp\cc6b5yFd.s 			page 39


 510 0032 0346     		mov	r3, r0
 511 0034 002B     		cmp	r3, #0
 512 0036 09D1     		bne	.L19
 119:Si7021.c      ****         status = ReadStatusPacketFromI2C(masterTransferCfg, SI7021_DEFAULT_ADDRESS, 1); // read 3 b
 513              		.loc 2 119 0
 514 0038 0123     		movs	r3, #1
 515 003a 0193     		str	r3, [sp, #4]
 516 003c 4023     		movs	r3, #64
 517 003e 0093     		str	r3, [sp]
 518 0040 3B46     		mov	r3, r7
 519 0042 0FCB     		ldmia	r3, {r0, r1, r2, r3}
 520 0044 FFF7FEFF 		bl	ReadStatusPacketFromI2C
 521 0048 0346     		mov	r3, r0
 522 004a FB75     		strb	r3, [r7, #23]
 523              	.L19:
 120:Si7021.c      ****         // todo: Do something with read data
 121:Si7021.c      ****     }
 122:Si7021.c      ****     
 123:Si7021.c      ****     return status;
 524              		.loc 2 123 0
 525 004c FB7D     		ldrb	r3, [r7, #23]	@ zero_extendqisi2
 124:Si7021.c      **** }
 526              		.loc 2 124 0
 527 004e 1846     		mov	r0, r3
 528 0050 1C37     		adds	r7, r7, #28
 529              		.cfi_def_cfa_offset 12
 530 0052 BD46     		mov	sp, r7
 531              		.cfi_def_cfa_register 13
 532              		@ sp needed
 533 0054 90BD     		pop	{r4, r7, pc}
 534              		.cfi_endproc
 535              	.LFE1101:
 536              		.size	readSerial, .-readSerial
 537 0056 00BF     		.section	.text.readRevision,"ax",%progbits
 538              		.align	2
 539              		.global	readRevision
 540              		.thumb
 541              		.thumb_func
 542              		.type	readRevision, %function
 543              	readRevision:
 544              	.LFB1102:
 125:Si7021.c      **** 
 126:Si7021.c      **** /* 
 127:Si7021.c      **** * Function: readRevision 
 128:Si7021.c      **** * Description: Read values from Si7021 after it has been setup
 129:Si7021.c      **** *
 130:Si7021.c      **** * Arguments:  cy_stc_scb_i2c_master_xfer_config_t masterTransferCfg = psoc I2C settings
 131:Si7021.c      **** * Output:     uint8_t status
 132:Si7021.c      **** */
 133:Si7021.c      **** uint8_t readRevision(cy_stc_scb_i2c_master_xfer_config_t masterTransferCfg){
 545              		.loc 2 133 0
 546              		.cfi_startproc
 547              		@ args = 0, pretend = 0, frame = 24
 548              		@ frame_needed = 1, uses_anonymous_args = 0
 549 0000 90B5     		push	{r4, r7, lr}
 550              		.cfi_def_cfa_offset 12
 551              		.cfi_offset 4, -12
ARM GAS  C:\Users\stijn\AppData\Local\Temp\cc6b5yFd.s 			page 40


 552              		.cfi_offset 7, -8
 553              		.cfi_offset 14, -4
 554 0002 8BB0     		sub	sp, sp, #44
 555              		.cfi_def_cfa_offset 56
 556 0004 04AF     		add	r7, sp, #16
 557              		.cfi_def_cfa 7, 40
 558 0006 3C46     		mov	r4, r7
 559 0008 84E80F00 		stmia	r4, {r0, r1, r2, r3}
 134:Si7021.c      ****     masterTransferCfg.slaveAddress = SI7021_DEFAULT_ADDRESS;
 560              		.loc 2 134 0
 561 000c 4023     		movs	r3, #64
 562 000e 3B70     		strb	r3, [r7]
 135:Si7021.c      ****     uint8_t status = TRANSFER_ERROR;
 563              		.loc 2 135 0
 564 0010 FF23     		movs	r3, #255
 565 0012 FB75     		strb	r3, [r7, #23]
 136:Si7021.c      ****     uint8_t msg[WRITE_PACKET_SIZE];
 137:Si7021.c      ****     msg[0] = (SI7021_FIRMVERS_CMD >> 8);
 566              		.loc 2 137 0
 567 0014 8423     		movs	r3, #132
 568 0016 3B75     		strb	r3, [r7, #20]
 138:Si7021.c      ****     msg[1] = (SI7021_FIRMVERS_CMD & 0xFF);
 569              		.loc 2 138 0
 570 0018 B823     		movs	r3, #184
 571 001a 7B75     		strb	r3, [r7, #21]
 139:Si7021.c      ****     
 140:Si7021.c      ****     if(TRANSFER_CMPLT == WriteCommandPacketToI2C(masterTransferCfg, SI7021_DEFAULT_ADDRESS, msg, 2)
 572              		.loc 2 140 0
 573 001c 0223     		movs	r3, #2
 574 001e 0293     		str	r3, [sp, #8]
 575 0020 07F11403 		add	r3, r7, #20
 576 0024 0193     		str	r3, [sp, #4]
 577 0026 4023     		movs	r3, #64
 578 0028 0093     		str	r3, [sp]
 579 002a 3B46     		mov	r3, r7
 580 002c 0FCB     		ldmia	r3, {r0, r1, r2, r3}
 581 002e FFF7FEFF 		bl	WriteCommandPacketToI2C
 582 0032 0346     		mov	r3, r0
 583 0034 002B     		cmp	r3, #0
 584 0036 09D1     		bne	.L22
 141:Si7021.c      ****         status = ReadStatusPacketFromI2C(masterTransferCfg, SI7021_DEFAULT_ADDRESS, 2); // read 3 b
 585              		.loc 2 141 0
 586 0038 0223     		movs	r3, #2
 587 003a 0193     		str	r3, [sp, #4]
 588 003c 4023     		movs	r3, #64
 589 003e 0093     		str	r3, [sp]
 590 0040 3B46     		mov	r3, r7
 591 0042 0FCB     		ldmia	r3, {r0, r1, r2, r3}
 592 0044 FFF7FEFF 		bl	ReadStatusPacketFromI2C
 593 0048 0346     		mov	r3, r0
 594 004a FB75     		strb	r3, [r7, #23]
 595              	.L22:
 142:Si7021.c      ****         // todo: Do something with read data
 143:Si7021.c      ****     }
 144:Si7021.c      ****     
 145:Si7021.c      ****     return status;
 596              		.loc 2 145 0
ARM GAS  C:\Users\stijn\AppData\Local\Temp\cc6b5yFd.s 			page 41


 597 004c FB7D     		ldrb	r3, [r7, #23]	@ zero_extendqisi2
 146:Si7021.c      **** }
 598              		.loc 2 146 0
 599 004e 1846     		mov	r0, r3
 600 0050 1C37     		adds	r7, r7, #28
 601              		.cfi_def_cfa_offset 12
 602 0052 BD46     		mov	sp, r7
 603              		.cfi_def_cfa_register 13
 604              		@ sp needed
 605 0054 90BD     		pop	{r4, r7, pc}
 606              		.cfi_endproc
 607              	.LFE1102:
 608              		.size	readRevision, .-readRevision
 609 0056 00BF     		.section	.text.Si7021Task,"ax",%progbits
 610              		.align	2
 611              		.global	Si7021Task
 612              		.thumb
 613              		.thumb_func
 614              		.type	Si7021Task, %function
 615              	Si7021Task:
 616              	.LFB1103:
 147:Si7021.c      **** 
 148:Si7021.c      **** 
 149:Si7021.c      **** /* 
 150:Si7021.c      **** * Function: Si7021Task  
 151:Si7021.c      **** * Description: start up a task to read out the Si7021 at a set interval
 152:Si7021.c      **** *
 153:Si7021.c      **** * Arguments:  void *masterTransfer
 154:Si7021.c      **** * Output:     none
 155:Si7021.c      **** */
 156:Si7021.c      **** void Si7021Task(void *masterTransfer){
 617              		.loc 2 156 0
 618              		.cfi_startproc
 619              		@ args = 0, pretend = 0, frame = 32
 620              		@ frame_needed = 1, uses_anonymous_args = 0
 621 0000 90B5     		push	{r4, r7, lr}
 622              		.cfi_def_cfa_offset 12
 623              		.cfi_offset 4, -12
 624              		.cfi_offset 7, -8
 625              		.cfi_offset 14, -4
 626 0002 89B0     		sub	sp, sp, #36
 627              		.cfi_def_cfa_offset 48
 628 0004 00AF     		add	r7, sp, #0
 629              		.cfi_def_cfa_register 7
 630 0006 7860     		str	r0, [r7, #4]
 157:Si7021.c      ****     uint16_t temp;
 158:Si7021.c      ****     uint16_t hum;
 159:Si7021.c      ****     float temperature;
 160:Si7021.c      ****     float humidity;
 161:Si7021.c      ****     
 162:Si7021.c      ****     cy_stc_scb_i2c_master_xfer_config_t masterTransferCfg;
 163:Si7021.c      ****     
 164:Si7021.c      ****     masterTransferCfg = *(cy_stc_scb_i2c_master_xfer_config_t *) masterTransfer;
 631              		.loc 2 164 0
 632 0008 7B68     		ldr	r3, [r7, #4]
 633 000a 07F10C04 		add	r4, r7, #12
 634 000e 0FCB     		ldmia	r3, {r0, r1, r2, r3}
ARM GAS  C:\Users\stijn\AppData\Local\Temp\cc6b5yFd.s 			page 42


 635 0010 84E80F00 		stmia	r4, {r0, r1, r2, r3}
 165:Si7021.c      ****     
 166:Si7021.c      ****     TickType_t xLastWakeTime;
 167:Si7021.c      ****     const TickType_t xFrequency = 60000;
 636              		.loc 2 167 0
 637 0014 4EF66023 		movw	r3, #60000
 638 0018 FB61     		str	r3, [r7, #28]
 168:Si7021.c      ****       
 169:Si7021.c      ****     xLastWakeTime = xTaskGetTickCount();    
 639              		.loc 2 169 0
 640 001a FFF7FEFF 		bl	xTaskGetTickCount
 641 001e 0346     		mov	r3, r0
 642 0020 BB60     		str	r3, [r7, #8]
 170:Si7021.c      ****     
 171:Si7021.c      ****     if (TRANSFER_CMPLT == initSI7021(masterTransferCfg)){
 643              		.loc 2 171 0
 644 0022 07F10C03 		add	r3, r7, #12
 645 0026 0FCB     		ldmia	r3, {r0, r1, r2, r3}
 646 0028 FFF7FEFF 		bl	initSI7021
 647 002c 0346     		mov	r3, r0
 648 002e 002B     		cmp	r3, #0
 649 0030 2AD1     		bne	.L29
 650              	.L28:
 172:Si7021.c      ****         for(;;){
 173:Si7021.c      ****             vTaskDelayUntil(&xLastWakeTime, xFrequency);
 651              		.loc 2 173 0
 652 0032 07F10803 		add	r3, r7, #8
 653 0036 F969     		ldr	r1, [r7, #28]
 654 0038 1846     		mov	r0, r3
 655 003a FFF7FEFF 		bl	vTaskDelayUntil
 174:Si7021.c      ****             sensor = RHT;
 656              		.loc 2 174 0
 657 003e 144B     		ldr	r3, .L30
 658 0040 0722     		movs	r2, #7
 659 0042 1A60     		str	r2, [r3]
 175:Si7021.c      ****             if(TRANSFER_CMPLT == readTemp(masterTransferCfg)){
 660              		.loc 2 175 0
 661 0044 07F10C03 		add	r3, r7, #12
 662 0048 0FCB     		ldmia	r3, {r0, r1, r2, r3}
 663 004a FFF7FEFF 		bl	readTemp
 664 004e 0346     		mov	r3, r0
 665 0050 002B     		cmp	r3, #0
 666 0052 0CD1     		bne	.L26
 176:Si7021.c      ****                 Cy_DMA_Channel_SetDescriptor(I2CDMA_HW, I2CDMA_DW_CHANNEL, &I2CDMA_Descriptor_Temp)
 667              		.loc 2 176 0
 668 0054 0F4A     		ldr	r2, .L30+4
 669 0056 0521     		movs	r1, #5
 670 0058 0F48     		ldr	r0, .L30+8
 671 005a FFF7FEFF 		bl	Cy_DMA_Channel_SetDescriptor
 177:Si7021.c      ****     	        Cy_DMA_Channel_Enable(I2CDMA_HW, I2CDMA_DW_CHANNEL);
 672              		.loc 2 177 0
 673 005e 0521     		movs	r1, #5
 674 0060 0D48     		ldr	r0, .L30+8
 675 0062 FFF7FEFF 		bl	Cy_DMA_Channel_Enable
 178:Si7021.c      ****                 Cy_TrigMux_SwTrigger((uint32_t)I2CDMA_DW__TR_IN, 1);
 676              		.loc 2 178 0
 677 0066 0121     		movs	r1, #1
ARM GAS  C:\Users\stijn\AppData\Local\Temp\cc6b5yFd.s 			page 43


 678 0068 0C48     		ldr	r0, .L30+12
 679 006a FFF7FEFF 		bl	Cy_TrigMux_SwTrigger
 680              	.L26:
 179:Si7021.c      ****                 
 180:Si7021.c      ****                 /*temp = ((uint16_t)readBuffer[0] << 8) | (uint16_t)readBuffer[1]; //todo: deal wit
 181:Si7021.c      ****                 temperature = (float) temp;
 182:Si7021.c      ****                 temperature *= 175.72;
 183:Si7021.c      ****                 temperature /= 65536;
 184:Si7021.c      ****                 temperature -= 46.85;
 185:Si7021.c      ****                 printf("%f\r\n", temperature);*/
 186:Si7021.c      ****             }
 187:Si7021.c      ****             if(TRANSFER_CMPLT == readHumidity(masterTransferCfg)){
 681              		.loc 2 187 0
 682 006e 07F10C03 		add	r3, r7, #12
 683 0072 0FCB     		ldmia	r3, {r0, r1, r2, r3}
 684 0074 FFF7FEFF 		bl	readHumidity
 685 0078 0346     		mov	r3, r0
 686 007a 002B     		cmp	r3, #0
 687 007c D9D1     		bne	.L28
 188:Si7021.c      ****                 //Cy_DMA_Channel_SetDescriptor(I2CDMA_HW, I2CDMA_DW_CHANNEL, &I2CDMA_Descriptor_Tem
 189:Si7021.c      ****     	        //Cy_DMA_Channel_Enable(I2CDMA_HW, I2CDMA_DW_CHANNEL);
 190:Si7021.c      ****                 Cy_TrigMux_SwTrigger((uint32_t)I2CDMA_DW__TR_IN, 1);
 688              		.loc 2 190 0
 689 007e 0121     		movs	r1, #1
 690 0080 0648     		ldr	r0, .L30+12
 691 0082 FFF7FEFF 		bl	Cy_TrigMux_SwTrigger
 191:Si7021.c      ****                 
 192:Si7021.c      ****                 /*hum = ((uint16_t)readBuffer[0] << 8) | (uint16_t)readBuffer[1]; //todo: deal with
 193:Si7021.c      ****                 humidity = (float) hum;
 194:Si7021.c      ****                 humidity *= 125;
 195:Si7021.c      ****                 humidity /= 65536;
 196:Si7021.c      ****                 humidity -= 6;
 197:Si7021.c      ****                 printf("%f\r\n", humidity);*/
 198:Si7021.c      ****             }
 199:Si7021.c      ****         }
 692              		.loc 2 199 0
 693 0086 D4E7     		b	.L28
 694              	.L29:
 200:Si7021.c      ****     }
 201:Si7021.c      **** }...
 695              		.loc 2 201 0
 696 0088 00BF     		nop
 697 008a 2437     		adds	r7, r7, #36
 698              		.cfi_def_cfa_offset 12
 699 008c BD46     		mov	sp, r7
 700              		.cfi_def_cfa_register 13
 701              		@ sp needed
 702 008e 90BD     		pop	{r4, r7, pc}
 703              	.L31:
 704              		.align	2
 705              	.L30:
 706 0090 04000000 		.word	sensor
 707 0094 00000000 		.word	I2CDMA_Descriptor_Temp
 708 0098 00002840 		.word	1076363264
 709 009c 05000040 		.word	1073741829
 710              		.cfi_endproc
 711              	.LFE1103:
ARM GAS  C:\Users\stijn\AppData\Local\Temp\cc6b5yFd.s 			page 44


 712              		.size	Si7021Task, .-Si7021Task
 713              		.text
 714              	.Letext0:
 715              		.file 3 "c:\\program files (x86)\\cypress\\psoc creator\\4.2\\psoc creator\\import\\gnu\\arm\\5.4.
 716              		.file 4 "c:\\program files (x86)\\cypress\\psoc creator\\4.2\\psoc creator\\import\\gnu\\arm\\5.4.
 717              		.file 5 "Generated_Source\\PSoC6\\pdl\\devices/psoc6/include/ip/cyip_dw.h"
 718              		.file 6 "Generated_Source\\PSoC6\\pdl\\devices/psoc6/include/psoc6_01_config.h"
 719              		.file 7 "Generated_Source\\PSoC6\\pdl\\devices/psoc6/include/ip/cyip_dw_v2.h"
 720              		.file 8 "Generated_Source\\PSoC6\\pdl\\drivers/peripheral/device/cy_device.h"
 721              		.file 9 "Generated_Source\\PSoC6\\pdl\\drivers/peripheral/syslib/cy_syslib.h"
 722              		.file 10 "Generated_Source\\PSoC6\\pdl\\drivers/peripheral/sar/cy_sar.h"
 723              		.file 11 "Generated_Source\\PSoC6\\pdl\\drivers/peripheral/scb/cy_scb_i2c.h"
 724              		.file 12 "Generated_Source\\PSoC6\\pdl\\drivers/peripheral/scb/cy_scb_uart.h"
 725              		.file 13 "Generated_Source\\PSoC6\\pdl\\drivers/peripheral/tcpwm/cy_tcpwm_counter.h"
 726              		.file 14 "Generated_Source\\PSoC6/ADC.h"
 727              		.file 15 "Generated_Source\\PSoC6\\pdl\\rtos/FreeRTOS/10.0.1/Source/portable/GCC/CM4F/portmacro.h"
 728              		.file 16 "analog.h"
 729              		.file 17 "serial.h"
 730              		.file 18 "Generated_Source\\PSoC6\\pdl\\cmsis/include/core_cm4.h"
 731              		.file 19 "Generated_Source\\PSoC6/UART.h"
 732              		.file 20 "Generated_Source\\PSoC6/mI2C.h"
 733              		.file 21 "Generated_Source\\PSoC6/ADCSOCCounter.h"
 734              		.file 22 "Generated_Source\\PSoC6/T1.h"
 735              		.file 23 "Generated_Source\\PSoC6/T0.h"
 736              		.file 24 "Generated_Source\\PSoC6/T2.h"
 737              		.file 25 "Generated_Source\\PSoC6/T3.h"
 738              		.file 26 "Generated_Source\\PSoC6/I2CDMA.h"
 739              		.file 27 "i2c.h"
 740              		.section	.debug_info,"",%progbits
 741              	.Ldebug_info0:
 742 0000 77120000 		.4byte	0x1277
 743 0004 0400     		.2byte	0x4
 744 0006 00000000 		.4byte	.Ldebug_abbrev0
 745 000a 04       		.byte	0x4
 746 000b 01       		.uleb128 0x1
 747 000c D1110000 		.4byte	.LASF315
 748 0010 0C       		.byte	0xc
 749 0011 7D020000 		.4byte	.LASF316
 750 0015 000D0000 		.4byte	.LASF317
 751 0019 00000000 		.4byte	.Ldebug_ranges0+0
 752 001d 00000000 		.4byte	0
 753 0021 00000000 		.4byte	.Ldebug_line0
 754 0025 02       		.uleb128 0x2
 755 0026 02       		.byte	0x2
 756 0027 05       		.byte	0x5
 757 0028 3A0C0000 		.4byte	.LASF0
 758 002c 02       		.uleb128 0x2
 759 002d 01       		.byte	0x1
 760 002e 06       		.byte	0x6
 761 002f 99100000 		.4byte	.LASF1
 762 0033 03       		.uleb128 0x3
 763 0034 8F0E0000 		.4byte	.LASF3
 764 0038 03       		.byte	0x3
 765 0039 1D       		.byte	0x1d
 766 003a 3E000000 		.4byte	0x3e
 767 003e 02       		.uleb128 0x2
 768 003f 01       		.byte	0x1
ARM GAS  C:\Users\stijn\AppData\Local\Temp\cc6b5yFd.s 			page 45


 769 0040 08       		.byte	0x8
 770 0041 DD0F0000 		.4byte	.LASF2
 771 0045 03       		.uleb128 0x3
 772 0046 56090000 		.4byte	.LASF4
 773 004a 03       		.byte	0x3
 774 004b 29       		.byte	0x29
 775 004c 25000000 		.4byte	0x25
 776 0050 03       		.uleb128 0x3
 777 0051 8A060000 		.4byte	.LASF5
 778 0055 03       		.byte	0x3
 779 0056 2B       		.byte	0x2b
 780 0057 5B000000 		.4byte	0x5b
 781 005b 02       		.uleb128 0x2
 782 005c 02       		.byte	0x2
 783 005d 07       		.byte	0x7
 784 005e CB0A0000 		.4byte	.LASF6
 785 0062 03       		.uleb128 0x3
 786 0063 49010000 		.4byte	.LASF7
 787 0067 03       		.byte	0x3
 788 0068 3F       		.byte	0x3f
 789 0069 6D000000 		.4byte	0x6d
 790 006d 02       		.uleb128 0x2
 791 006e 04       		.byte	0x4
 792 006f 05       		.byte	0x5
 793 0070 7F0C0000 		.4byte	.LASF8
 794 0074 03       		.uleb128 0x3
 795 0075 EB0F0000 		.4byte	.LASF9
 796 0079 03       		.byte	0x3
 797 007a 41       		.byte	0x41
 798 007b 7F000000 		.4byte	0x7f
 799 007f 02       		.uleb128 0x2
 800 0080 04       		.byte	0x4
 801 0081 07       		.byte	0x7
 802 0082 600F0000 		.4byte	.LASF10
 803 0086 02       		.uleb128 0x2
 804 0087 08       		.byte	0x8
 805 0088 05       		.byte	0x5
 806 0089 34080000 		.4byte	.LASF11
 807 008d 02       		.uleb128 0x2
 808 008e 08       		.byte	0x8
 809 008f 07       		.byte	0x7
 810 0090 3D040000 		.4byte	.LASF12
 811 0094 04       		.uleb128 0x4
 812 0095 04       		.byte	0x4
 813 0096 05       		.byte	0x5
 814 0097 696E7400 		.ascii	"int\000"
 815 009b 02       		.uleb128 0x2
 816 009c 04       		.byte	0x4
 817 009d 07       		.byte	0x7
 818 009e D2000000 		.4byte	.LASF13
 819 00a2 03       		.uleb128 0x3
 820 00a3 9B070000 		.4byte	.LASF14
 821 00a7 04       		.byte	0x4
 822 00a8 18       		.byte	0x18
 823 00a9 33000000 		.4byte	0x33
 824 00ad 03       		.uleb128 0x3
 825 00ae 1B040000 		.4byte	.LASF15
ARM GAS  C:\Users\stijn\AppData\Local\Temp\cc6b5yFd.s 			page 46


 826 00b2 04       		.byte	0x4
 827 00b3 20       		.byte	0x20
 828 00b4 45000000 		.4byte	0x45
 829 00b8 03       		.uleb128 0x3
 830 00b9 F40A0000 		.4byte	.LASF16
 831 00bd 04       		.byte	0x4
 832 00be 24       		.byte	0x24
 833 00bf 50000000 		.4byte	0x50
 834 00c3 03       		.uleb128 0x3
 835 00c4 7E0F0000 		.4byte	.LASF17
 836 00c8 04       		.byte	0x4
 837 00c9 2C       		.byte	0x2c
 838 00ca 62000000 		.4byte	0x62
 839 00ce 03       		.uleb128 0x3
 840 00cf 0D010000 		.4byte	.LASF18
 841 00d3 04       		.byte	0x4
 842 00d4 30       		.byte	0x30
 843 00d5 74000000 		.4byte	0x74
 844 00d9 02       		.uleb128 0x2
 845 00da 04       		.byte	0x4
 846 00db 07       		.byte	0x7
 847 00dc 82090000 		.4byte	.LASF19
 848 00e0 05       		.uleb128 0x5
 849 00e1 CE000000 		.4byte	0xce
 850 00e5 06       		.uleb128 0x6
 851 00e6 E0000000 		.4byte	0xe0
 852 00ea 07       		.uleb128 0x7
 853 00eb E5000000 		.4byte	0xe5
 854 00ef FA000000 		.4byte	0xfa
 855 00f3 08       		.uleb128 0x8
 856 00f4 D9000000 		.4byte	0xd9
 857 00f8 01       		.byte	0x1
 858 00f9 00       		.byte	0
 859 00fa 07       		.uleb128 0x7
 860 00fb E5000000 		.4byte	0xe5
 861 00ff 0A010000 		.4byte	0x10a
 862 0103 08       		.uleb128 0x8
 863 0104 D9000000 		.4byte	0xd9
 864 0108 04       		.byte	0x4
 865 0109 00       		.byte	0
 866 010a 09       		.uleb128 0x9
 867 010b 04       		.byte	0x4
 868 010c 9B000000 		.4byte	0x9b
 869 0110 06       		.byte	0x6
 870 0111 4403     		.2byte	0x344
 871 0113 A8010000 		.4byte	0x1a8
 872 0117 0A       		.uleb128 0xa
 873 0118 630D0000 		.4byte	.LASF20
 874 011c 00000040 		.4byte	0x40000000
 875 0120 0A       		.uleb128 0xa
 876 0121 7E0D0000 		.4byte	.LASF21
 877 0125 01000040 		.4byte	0x40000001
 878 0129 0A       		.uleb128 0xa
 879 012a 1F0C0000 		.4byte	.LASF22
 880 012e 02000040 		.4byte	0x40000002
 881 0132 0A       		.uleb128 0xa
 882 0133 A00D0000 		.4byte	.LASF23
ARM GAS  C:\Users\stijn\AppData\Local\Temp\cc6b5yFd.s 			page 47


 883 0137 03000040 		.4byte	0x40000003
 884 013b 0A       		.uleb128 0xa
 885 013c BB0D0000 		.4byte	.LASF24
 886 0140 04000040 		.4byte	0x40000004
 887 0144 0A       		.uleb128 0xa
 888 0145 D60D0000 		.4byte	.LASF25
 889 0149 05000040 		.4byte	0x40000005
 890 014d 0A       		.uleb128 0xa
 891 014e F10D0000 		.4byte	.LASF26
 892 0152 06000040 		.4byte	0x40000006
 893 0156 0A       		.uleb128 0xa
 894 0157 0C0E0000 		.4byte	.LASF27
 895 015b 07000040 		.4byte	0x40000007
 896 015f 0A       		.uleb128 0xa
 897 0160 270E0000 		.4byte	.LASF28
 898 0164 08000040 		.4byte	0x40000008
 899 0168 0A       		.uleb128 0xa
 900 0169 420E0000 		.4byte	.LASF29
 901 016d 09000040 		.4byte	0x40000009
 902 0171 0A       		.uleb128 0xa
 903 0172 88080000 		.4byte	.LASF30
 904 0176 0A000040 		.4byte	0x4000000a
 905 017a 0A       		.uleb128 0xa
 906 017b A4080000 		.4byte	.LASF31
 907 017f 0B000040 		.4byte	0x4000000b
 908 0183 0A       		.uleb128 0xa
 909 0184 C0080000 		.4byte	.LASF32
 910 0188 0C000040 		.4byte	0x4000000c
 911 018c 0A       		.uleb128 0xa
 912 018d DC080000 		.4byte	.LASF33
 913 0191 0D000040 		.4byte	0x4000000d
 914 0195 0A       		.uleb128 0xa
 915 0196 F8080000 		.4byte	.LASF34
 916 019a 0E000040 		.4byte	0x4000000e
 917 019e 0A       		.uleb128 0xa
 918 019f 14090000 		.4byte	.LASF35
 919 01a3 0F000040 		.4byte	0x4000000f
 920 01a7 00       		.byte	0
 921 01a8 0B       		.uleb128 0xb
 922 01a9 20       		.byte	0x20
 923 01aa 05       		.byte	0x5
 924 01ab 22       		.byte	0x22
 925 01ac 11020000 		.4byte	0x211
 926 01b0 0C       		.uleb128 0xc
 927 01b1 0E110000 		.4byte	.LASF36
 928 01b5 05       		.byte	0x5
 929 01b6 23       		.byte	0x23
 930 01b7 E0000000 		.4byte	0xe0
 931 01bb 00       		.byte	0
 932 01bc 0C       		.uleb128 0xc
 933 01bd 15100000 		.4byte	.LASF37
 934 01c1 05       		.byte	0x5
 935 01c2 24       		.byte	0x24
 936 01c3 E5000000 		.4byte	0xe5
 937 01c7 04       		.byte	0x4
 938 01c8 0C       		.uleb128 0xc
 939 01c9 12050000 		.4byte	.LASF38
ARM GAS  C:\Users\stijn\AppData\Local\Temp\cc6b5yFd.s 			page 48


 940 01cd 05       		.byte	0x5
 941 01ce 25       		.byte	0x25
 942 01cf E0000000 		.4byte	0xe0
 943 01d3 08       		.byte	0x8
 944 01d4 0C       		.uleb128 0xc
 945 01d5 40090000 		.4byte	.LASF39
 946 01d9 05       		.byte	0x5
 947 01da 26       		.byte	0x26
 948 01db E0000000 		.4byte	0xe0
 949 01df 0C       		.byte	0xc
 950 01e0 0C       		.uleb128 0xc
 951 01e1 A7030000 		.4byte	.LASF40
 952 01e5 05       		.byte	0x5
 953 01e6 27       		.byte	0x27
 954 01e7 E0000000 		.4byte	0xe0
 955 01eb 10       		.byte	0x10
 956 01ec 0C       		.uleb128 0xc
 957 01ed 24020000 		.4byte	.LASF41
 958 01f1 05       		.byte	0x5
 959 01f2 28       		.byte	0x28
 960 01f3 E0000000 		.4byte	0xe0
 961 01f7 14       		.byte	0x14
 962 01f8 0C       		.uleb128 0xc
 963 01f9 95060000 		.4byte	.LASF42
 964 01fd 05       		.byte	0x5
 965 01fe 29       		.byte	0x29
 966 01ff E0000000 		.4byte	0xe0
 967 0203 18       		.byte	0x18
 968 0204 0C       		.uleb128 0xc
 969 0205 770A0000 		.4byte	.LASF43
 970 0209 05       		.byte	0x5
 971 020a 2A       		.byte	0x2a
 972 020b E5000000 		.4byte	0xe5
 973 020f 1C       		.byte	0x1c
 974 0210 00       		.byte	0
 975 0211 03       		.uleb128 0x3
 976 0212 3E050000 		.4byte	.LASF44
 977 0216 05       		.byte	0x5
 978 0217 2B       		.byte	0x2b
 979 0218 A8010000 		.4byte	0x1a8
 980 021c 0D       		.uleb128 0xd
 981 021d 000C     		.2byte	0xc00
 982 021f 05       		.byte	0x5
 983 0220 30       		.byte	0x30
 984 0221 0B030000 		.4byte	0x30b
 985 0225 0E       		.uleb128 0xe
 986 0226 43544C00 		.ascii	"CTL\000"
 987 022a 05       		.byte	0x5
 988 022b 31       		.byte	0x31
 989 022c E0000000 		.4byte	0xe0
 990 0230 00       		.byte	0
 991 0231 0C       		.uleb128 0xc
 992 0232 59110000 		.4byte	.LASF45
 993 0236 05       		.byte	0x5
 994 0237 32       		.byte	0x32
 995 0238 E5000000 		.4byte	0xe5
 996 023c 04       		.byte	0x4
ARM GAS  C:\Users\stijn\AppData\Local\Temp\cc6b5yFd.s 			page 49


 997 023d 0C       		.uleb128 0xc
 998 023e A5010000 		.4byte	.LASF46
 999 0242 05       		.byte	0x5
 1000 0243 33       		.byte	0x33
 1001 0244 E5000000 		.4byte	0xe5
 1002 0248 08       		.byte	0x8
 1003 0249 0C       		.uleb128 0xc
 1004 024a EF020000 		.4byte	.LASF47
 1005 024e 05       		.byte	0x5
 1006 024f 34       		.byte	0x34
 1007 0250 E5000000 		.4byte	0xe5
 1008 0254 0C       		.byte	0xc
 1009 0255 0C       		.uleb128 0xc
 1010 0256 6E0E0000 		.4byte	.LASF48
 1011 025a 05       		.byte	0x5
 1012 025b 35       		.byte	0x35
 1013 025c E5000000 		.4byte	0xe5
 1014 0260 10       		.byte	0x10
 1015 0261 0C       		.uleb128 0xc
 1016 0262 AE0E0000 		.4byte	.LASF49
 1017 0266 05       		.byte	0x5
 1018 0267 36       		.byte	0x36
 1019 0268 E5000000 		.4byte	0xe5
 1020 026c 14       		.byte	0x14
 1021 026d 0C       		.uleb128 0xc
 1022 026e 3A110000 		.4byte	.LASF50
 1023 0272 05       		.byte	0x5
 1024 0273 37       		.byte	0x37
 1025 0274 10030000 		.4byte	0x310
 1026 0278 18       		.byte	0x18
 1027 0279 0C       		.uleb128 0xc
 1028 027a 2F100000 		.4byte	.LASF51
 1029 027e 05       		.byte	0x5
 1030 027f 38       		.byte	0x38
 1031 0280 E5000000 		.4byte	0xe5
 1032 0284 20       		.byte	0x20
 1033 0285 0C       		.uleb128 0xc
 1034 0286 C4000000 		.4byte	.LASF52
 1035 028a 05       		.byte	0x5
 1036 028b 39       		.byte	0x39
 1037 028c E5000000 		.4byte	0xe5
 1038 0290 24       		.byte	0x24
 1039 0291 0C       		.uleb128 0xc
 1040 0292 77030000 		.4byte	.LASF53
 1041 0296 05       		.byte	0x5
 1042 0297 3A       		.byte	0x3a
 1043 0298 E5000000 		.4byte	0xe5
 1044 029c 28       		.byte	0x28
 1045 029d 0C       		.uleb128 0xc
 1046 029e FB0B0000 		.4byte	.LASF54
 1047 02a2 05       		.byte	0x5
 1048 02a3 3B       		.byte	0x3b
 1049 02a4 E5000000 		.4byte	0xe5
 1050 02a8 2C       		.byte	0x2c
 1051 02a9 0C       		.uleb128 0xc
 1052 02aa 2A000000 		.4byte	.LASF55
 1053 02ae 05       		.byte	0x5
ARM GAS  C:\Users\stijn\AppData\Local\Temp\cc6b5yFd.s 			page 50


 1054 02af 3C       		.byte	0x3c
 1055 02b0 E5000000 		.4byte	0xe5
 1056 02b4 30       		.byte	0x30
 1057 02b5 0C       		.uleb128 0xc
 1058 02b6 050C0000 		.4byte	.LASF56
 1059 02ba 05       		.byte	0x5
 1060 02bb 3D       		.byte	0x3d
 1061 02bc E5000000 		.4byte	0xe5
 1062 02c0 34       		.byte	0x34
 1063 02c1 0C       		.uleb128 0xc
 1064 02c2 1F060000 		.4byte	.LASF57
 1065 02c6 05       		.byte	0x5
 1066 02c7 3E       		.byte	0x3e
 1067 02c8 E5000000 		.4byte	0xe5
 1068 02cc 38       		.byte	0x38
 1069 02cd 0C       		.uleb128 0xc
 1070 02ce 79110000 		.4byte	.LASF58
 1071 02d2 05       		.byte	0x5
 1072 02d3 3F       		.byte	0x3f
 1073 02d4 E5000000 		.4byte	0xe5
 1074 02d8 3C       		.byte	0x3c
 1075 02d9 0C       		.uleb128 0xc
 1076 02da 6F030000 		.4byte	.LASF59
 1077 02de 05       		.byte	0x5
 1078 02df 40       		.byte	0x40
 1079 02e0 E5000000 		.4byte	0xe5
 1080 02e4 40       		.byte	0x40
 1081 02e5 0C       		.uleb128 0xc
 1082 02e6 EC050000 		.4byte	.LASF60
 1083 02ea 05       		.byte	0x5
 1084 02eb 41       		.byte	0x41
 1085 02ec E5000000 		.4byte	0xe5
 1086 02f0 44       		.byte	0x44
 1087 02f1 0C       		.uleb128 0xc
 1088 02f2 150C0000 		.4byte	.LASF61
 1089 02f6 05       		.byte	0x5
 1090 02f7 42       		.byte	0x42
 1091 02f8 2B030000 		.4byte	0x32b
 1092 02fc 48       		.byte	0x48
 1093 02fd 0F       		.uleb128 0xf
 1094 02fe 4E100000 		.4byte	.LASF62
 1095 0302 05       		.byte	0x5
 1096 0303 43       		.byte	0x43
 1097 0304 30030000 		.4byte	0x330
 1098 0308 0008     		.2byte	0x800
 1099 030a 00       		.byte	0
 1100 030b 05       		.uleb128 0x5
 1101 030c EA000000 		.4byte	0xea
 1102 0310 06       		.uleb128 0x6
 1103 0311 0B030000 		.4byte	0x30b
 1104 0315 07       		.uleb128 0x7
 1105 0316 E5000000 		.4byte	0xe5
 1106 031a 26030000 		.4byte	0x326
 1107 031e 10       		.uleb128 0x10
 1108 031f D9000000 		.4byte	0xd9
 1109 0323 ED01     		.2byte	0x1ed
 1110 0325 00       		.byte	0
ARM GAS  C:\Users\stijn\AppData\Local\Temp\cc6b5yFd.s 			page 51


 1111 0326 05       		.uleb128 0x5
 1112 0327 15030000 		.4byte	0x315
 1113 032b 06       		.uleb128 0x6
 1114 032c 26030000 		.4byte	0x326
 1115 0330 07       		.uleb128 0x7
 1116 0331 11020000 		.4byte	0x211
 1117 0335 40030000 		.4byte	0x340
 1118 0339 08       		.uleb128 0x8
 1119 033a D9000000 		.4byte	0xd9
 1120 033e 1F       		.byte	0x1f
 1121 033f 00       		.byte	0
 1122 0340 03       		.uleb128 0x3
 1123 0341 A9050000 		.4byte	.LASF63
 1124 0345 05       		.byte	0x5
 1125 0346 44       		.byte	0x44
 1126 0347 1C020000 		.4byte	0x21c
 1127 034b 07       		.uleb128 0x7
 1128 034c A2000000 		.4byte	0xa2
 1129 0350 5B030000 		.4byte	0x35b
 1130 0354 08       		.uleb128 0x8
 1131 0355 D9000000 		.4byte	0xd9
 1132 0359 01       		.byte	0x1
 1133 035a 00       		.byte	0
 1134 035b 07       		.uleb128 0x7
 1135 035c A2000000 		.4byte	0xa2
 1136 0360 6B030000 		.4byte	0x36b
 1137 0364 08       		.uleb128 0x8
 1138 0365 D9000000 		.4byte	0xd9
 1139 0369 03       		.byte	0x3
 1140 036a 00       		.byte	0
 1141 036b 11       		.uleb128 0x11
 1142 036c E1100000 		.4byte	.LASF64
 1143 0370 06       		.byte	0x6
 1144 0371 2B06     		.2byte	0x62b
 1145 0373 40030000 		.4byte	0x340
 1146 0377 02       		.uleb128 0x2
 1147 0378 08       		.byte	0x8
 1148 0379 04       		.byte	0x4
 1149 037a E80A0000 		.4byte	.LASF65
 1150 037e 0B       		.uleb128 0xb
 1151 037f 40       		.byte	0x40
 1152 0380 07       		.byte	0x7
 1153 0381 22       		.byte	0x22
 1154 0382 17040000 		.4byte	0x417
 1155 0386 0C       		.uleb128 0xc
 1156 0387 0E110000 		.4byte	.LASF36
 1157 038b 07       		.byte	0x7
 1158 038c 23       		.byte	0x23
 1159 038d E0000000 		.4byte	0xe0
 1160 0391 00       		.byte	0
 1161 0392 0C       		.uleb128 0xc
 1162 0393 15100000 		.4byte	.LASF37
 1163 0397 07       		.byte	0x7
 1164 0398 24       		.byte	0x24
 1165 0399 E5000000 		.4byte	0xe5
 1166 039d 04       		.byte	0x4
 1167 039e 0C       		.uleb128 0xc
ARM GAS  C:\Users\stijn\AppData\Local\Temp\cc6b5yFd.s 			page 52


 1168 039f 12050000 		.4byte	.LASF38
 1169 03a3 07       		.byte	0x7
 1170 03a4 25       		.byte	0x25
 1171 03a5 E0000000 		.4byte	0xe0
 1172 03a9 08       		.byte	0x8
 1173 03aa 0C       		.uleb128 0xc
 1174 03ab 40090000 		.4byte	.LASF39
 1175 03af 07       		.byte	0x7
 1176 03b0 26       		.byte	0x26
 1177 03b1 E0000000 		.4byte	0xe0
 1178 03b5 0C       		.byte	0xc
 1179 03b6 0C       		.uleb128 0xc
 1180 03b7 A7030000 		.4byte	.LASF40
 1181 03bb 07       		.byte	0x7
 1182 03bc 27       		.byte	0x27
 1183 03bd E0000000 		.4byte	0xe0
 1184 03c1 10       		.byte	0x10
 1185 03c2 0C       		.uleb128 0xc
 1186 03c3 24020000 		.4byte	.LASF41
 1187 03c7 07       		.byte	0x7
 1188 03c8 28       		.byte	0x28
 1189 03c9 E0000000 		.4byte	0xe0
 1190 03cd 14       		.byte	0x14
 1191 03ce 0C       		.uleb128 0xc
 1192 03cf 95060000 		.4byte	.LASF42
 1193 03d3 07       		.byte	0x7
 1194 03d4 29       		.byte	0x29
 1195 03d5 E0000000 		.4byte	0xe0
 1196 03d9 18       		.byte	0x18
 1197 03da 0C       		.uleb128 0xc
 1198 03db 770A0000 		.4byte	.LASF43
 1199 03df 07       		.byte	0x7
 1200 03e0 2A       		.byte	0x2a
 1201 03e1 E5000000 		.4byte	0xe5
 1202 03e5 1C       		.byte	0x1c
 1203 03e6 0C       		.uleb128 0xc
 1204 03e7 57030000 		.4byte	.LASF66
 1205 03eb 07       		.byte	0x7
 1206 03ec 2B       		.byte	0x2b
 1207 03ed E0000000 		.4byte	0xe0
 1208 03f1 20       		.byte	0x20
 1209 03f2 0C       		.uleb128 0xc
 1210 03f3 6B000000 		.4byte	.LASF67
 1211 03f7 07       		.byte	0x7
 1212 03f8 2C       		.byte	0x2c
 1213 03f9 E0000000 		.4byte	0xe0
 1214 03fd 24       		.byte	0x24
 1215 03fe 0C       		.uleb128 0xc
 1216 03ff A2050000 		.4byte	.LASF68
 1217 0403 07       		.byte	0x7
 1218 0404 2D       		.byte	0x2d
 1219 0405 E0000000 		.4byte	0xe0
 1220 0409 28       		.byte	0x28
 1221 040a 0C       		.uleb128 0xc
 1222 040b EF020000 		.4byte	.LASF47
 1223 040f 07       		.byte	0x7
 1224 0410 2E       		.byte	0x2e
ARM GAS  C:\Users\stijn\AppData\Local\Temp\cc6b5yFd.s 			page 53


 1225 0411 1C040000 		.4byte	0x41c
 1226 0415 2C       		.byte	0x2c
 1227 0416 00       		.byte	0
 1228 0417 05       		.uleb128 0x5
 1229 0418 FA000000 		.4byte	0xfa
 1230 041c 06       		.uleb128 0x6
 1231 041d 17040000 		.4byte	0x417
 1232 0421 03       		.uleb128 0x3
 1233 0422 E9100000 		.4byte	.LASF69
 1234 0426 07       		.byte	0x7
 1235 0427 2F       		.byte	0x2f
 1236 0428 7E030000 		.4byte	0x37e
 1237 042c 0B       		.uleb128 0xb
 1238 042d B8       		.byte	0xb8
 1239 042e 08       		.byte	0x8
 1240 042f 34       		.byte	0x34
 1241 0430 3D080000 		.4byte	0x83d
 1242 0434 0C       		.uleb128 0xc
 1243 0435 62010000 		.4byte	.LASF70
 1244 0439 08       		.byte	0x8
 1245 043a 37       		.byte	0x37
 1246 043b CE000000 		.4byte	0xce
 1247 043f 00       		.byte	0
 1248 0440 0C       		.uleb128 0xc
 1249 0441 A9000000 		.4byte	.LASF71
 1250 0445 08       		.byte	0x8
 1251 0446 38       		.byte	0x38
 1252 0447 CE000000 		.4byte	0xce
 1253 044b 04       		.byte	0x4
 1254 044c 0C       		.uleb128 0xc
 1255 044d 98000000 		.4byte	.LASF72
 1256 0451 08       		.byte	0x8
 1257 0452 39       		.byte	0x39
 1258 0453 CE000000 		.4byte	0xce
 1259 0457 08       		.byte	0x8
 1260 0458 0C       		.uleb128 0xc
 1261 0459 B6040000 		.4byte	.LASF73
 1262 045d 08       		.byte	0x8
 1263 045e 3A       		.byte	0x3a
 1264 045f CE000000 		.4byte	0xce
 1265 0463 0C       		.byte	0xc
 1266 0464 0C       		.uleb128 0xc
 1267 0465 FD0A0000 		.4byte	.LASF74
 1268 0469 08       		.byte	0x8
 1269 046a 3B       		.byte	0x3b
 1270 046b CE000000 		.4byte	0xce
 1271 046f 10       		.byte	0x10
 1272 0470 0C       		.uleb128 0xc
 1273 0471 6C090000 		.4byte	.LASF75
 1274 0475 08       		.byte	0x8
 1275 0476 3C       		.byte	0x3c
 1276 0477 CE000000 		.4byte	0xce
 1277 047b 14       		.byte	0x14
 1278 047c 0C       		.uleb128 0xc
 1279 047d 32060000 		.4byte	.LASF76
 1280 0481 08       		.byte	0x8
 1281 0482 3D       		.byte	0x3d
ARM GAS  C:\Users\stijn\AppData\Local\Temp\cc6b5yFd.s 			page 54


 1282 0483 CE000000 		.4byte	0xce
 1283 0487 18       		.byte	0x18
 1284 0488 0C       		.uleb128 0xc
 1285 0489 C6070000 		.4byte	.LASF77
 1286 048d 08       		.byte	0x8
 1287 048e 3E       		.byte	0x3e
 1288 048f CE000000 		.4byte	0xce
 1289 0493 1C       		.byte	0x1c
 1290 0494 0C       		.uleb128 0xc
 1291 0495 42080000 		.4byte	.LASF78
 1292 0499 08       		.byte	0x8
 1293 049a 3F       		.byte	0x3f
 1294 049b CE000000 		.4byte	0xce
 1295 049f 20       		.byte	0x20
 1296 04a0 0C       		.uleb128 0xc
 1297 04a1 59080000 		.4byte	.LASF79
 1298 04a5 08       		.byte	0x8
 1299 04a6 40       		.byte	0x40
 1300 04a7 CE000000 		.4byte	0xce
 1301 04ab 24       		.byte	0x24
 1302 04ac 0C       		.uleb128 0xc
 1303 04ad 880C0000 		.4byte	.LASF80
 1304 04b1 08       		.byte	0x8
 1305 04b2 43       		.byte	0x43
 1306 04b3 A2000000 		.4byte	0xa2
 1307 04b7 28       		.byte	0x28
 1308 04b8 0C       		.uleb128 0xc
 1309 04b9 B2030000 		.4byte	.LASF81
 1310 04bd 08       		.byte	0x8
 1311 04be 44       		.byte	0x44
 1312 04bf A2000000 		.4byte	0xa2
 1313 04c3 29       		.byte	0x29
 1314 04c4 0C       		.uleb128 0xc
 1315 04c5 4E060000 		.4byte	.LASF82
 1316 04c9 08       		.byte	0x8
 1317 04ca 45       		.byte	0x45
 1318 04cb A2000000 		.4byte	0xa2
 1319 04cf 2A       		.byte	0x2a
 1320 04d0 0C       		.uleb128 0xc
 1321 04d1 CC0C0000 		.4byte	.LASF83
 1322 04d5 08       		.byte	0x8
 1323 04d6 46       		.byte	0x46
 1324 04d7 A2000000 		.4byte	0xa2
 1325 04db 2B       		.byte	0x2b
 1326 04dc 0C       		.uleb128 0xc
 1327 04dd B10C0000 		.4byte	.LASF84
 1328 04e1 08       		.byte	0x8
 1329 04e2 47       		.byte	0x47
 1330 04e3 A2000000 		.4byte	0xa2
 1331 04e7 2C       		.byte	0x2c
 1332 04e8 0C       		.uleb128 0xc
 1333 04e9 530F0000 		.4byte	.LASF85
 1334 04ed 08       		.byte	0x8
 1335 04ee 48       		.byte	0x48
 1336 04ef A2000000 		.4byte	0xa2
 1337 04f3 2D       		.byte	0x2d
 1338 04f4 0C       		.uleb128 0xc
ARM GAS  C:\Users\stijn\AppData\Local\Temp\cc6b5yFd.s 			page 55


 1339 04f5 8F0B0000 		.4byte	.LASF86
 1340 04f9 08       		.byte	0x8
 1341 04fa 49       		.byte	0x49
 1342 04fb A2000000 		.4byte	0xa2
 1343 04ff 2E       		.byte	0x2e
 1344 0500 0C       		.uleb128 0xc
 1345 0501 86010000 		.4byte	.LASF87
 1346 0505 08       		.byte	0x8
 1347 0506 4A       		.byte	0x4a
 1348 0507 A2000000 		.4byte	0xa2
 1349 050b 2F       		.byte	0x2f
 1350 050c 0C       		.uleb128 0xc
 1351 050d B4020000 		.4byte	.LASF88
 1352 0511 08       		.byte	0x8
 1353 0512 4B       		.byte	0x4b
 1354 0513 A2000000 		.4byte	0xa2
 1355 0517 30       		.byte	0x30
 1356 0518 0C       		.uleb128 0xc
 1357 0519 120A0000 		.4byte	.LASF89
 1358 051d 08       		.byte	0x8
 1359 051e 4E       		.byte	0x4e
 1360 051f A2000000 		.4byte	0xa2
 1361 0523 31       		.byte	0x31
 1362 0524 0C       		.uleb128 0xc
 1363 0525 B7100000 		.4byte	.LASF90
 1364 0529 08       		.byte	0x8
 1365 052a 4F       		.byte	0x4f
 1366 052b A2000000 		.4byte	0xa2
 1367 052f 32       		.byte	0x32
 1368 0530 0C       		.uleb128 0xc
 1369 0531 BD090000 		.4byte	.LASF91
 1370 0535 08       		.byte	0x8
 1371 0536 50       		.byte	0x50
 1372 0537 A2000000 		.4byte	0xa2
 1373 053b 33       		.byte	0x33
 1374 053c 0C       		.uleb128 0xc
 1375 053d CD060000 		.4byte	.LASF92
 1376 0541 08       		.byte	0x8
 1377 0542 51       		.byte	0x51
 1378 0543 A2000000 		.4byte	0xa2
 1379 0547 34       		.byte	0x34
 1380 0548 0C       		.uleb128 0xc
 1381 0549 E3070000 		.4byte	.LASF93
 1382 054d 08       		.byte	0x8
 1383 054e 52       		.byte	0x52
 1384 054f AD000000 		.4byte	0xad
 1385 0553 36       		.byte	0x36
 1386 0554 0C       		.uleb128 0xc
 1387 0555 72020000 		.4byte	.LASF94
 1388 0559 08       		.byte	0x8
 1389 055a 53       		.byte	0x53
 1390 055b AD000000 		.4byte	0xad
 1391 055f 38       		.byte	0x38
 1392 0560 0C       		.uleb128 0xc
 1393 0561 9A090000 		.4byte	.LASF95
 1394 0565 08       		.byte	0x8
 1395 0566 54       		.byte	0x54
ARM GAS  C:\Users\stijn\AppData\Local\Temp\cc6b5yFd.s 			page 56


 1396 0567 AD000000 		.4byte	0xad
 1397 056b 3A       		.byte	0x3a
 1398 056c 0C       		.uleb128 0xc
 1399 056d 53010000 		.4byte	.LASF96
 1400 0571 08       		.byte	0x8
 1401 0572 55       		.byte	0x55
 1402 0573 A2000000 		.4byte	0xa2
 1403 0577 3C       		.byte	0x3c
 1404 0578 0C       		.uleb128 0xc
 1405 0579 97050000 		.4byte	.LASF97
 1406 057d 08       		.byte	0x8
 1407 057e 56       		.byte	0x56
 1408 057f A2000000 		.4byte	0xa2
 1409 0583 3D       		.byte	0x3d
 1410 0584 0C       		.uleb128 0xc
 1411 0585 420B0000 		.4byte	.LASF98
 1412 0589 08       		.byte	0x8
 1413 058a 57       		.byte	0x57
 1414 058b A2000000 		.4byte	0xa2
 1415 058f 3E       		.byte	0x3e
 1416 0590 0C       		.uleb128 0xc
 1417 0591 60090000 		.4byte	.LASF99
 1418 0595 08       		.byte	0x8
 1419 0596 58       		.byte	0x58
 1420 0597 A2000000 		.4byte	0xa2
 1421 059b 3F       		.byte	0x3f
 1422 059c 0C       		.uleb128 0xc
 1423 059d 16010000 		.4byte	.LASF100
 1424 05a1 08       		.byte	0x8
 1425 05a2 59       		.byte	0x59
 1426 05a3 A2000000 		.4byte	0xa2
 1427 05a7 40       		.byte	0x40
 1428 05a8 0C       		.uleb128 0xc
 1429 05a9 320A0000 		.4byte	.LASF101
 1430 05ad 08       		.byte	0x8
 1431 05ae 5A       		.byte	0x5a
 1432 05af A2000000 		.4byte	0xa2
 1433 05b3 41       		.byte	0x41
 1434 05b4 0C       		.uleb128 0xc
 1435 05b5 DA030000 		.4byte	.LASF102
 1436 05b9 08       		.byte	0x8
 1437 05ba 5B       		.byte	0x5b
 1438 05bb A2000000 		.4byte	0xa2
 1439 05bf 42       		.byte	0x42
 1440 05c0 0C       		.uleb128 0xc
 1441 05c1 6E060000 		.4byte	.LASF103
 1442 05c5 08       		.byte	0x8
 1443 05c6 5C       		.byte	0x5c
 1444 05c7 A2000000 		.4byte	0xa2
 1445 05cb 43       		.byte	0x43
 1446 05cc 0C       		.uleb128 0xc
 1447 05cd 3D070000 		.4byte	.LASF104
 1448 05d1 08       		.byte	0x8
 1449 05d2 5D       		.byte	0x5d
 1450 05d3 A2000000 		.4byte	0xa2
 1451 05d7 44       		.byte	0x44
 1452 05d8 0C       		.uleb128 0xc
ARM GAS  C:\Users\stijn\AppData\Local\Temp\cc6b5yFd.s 			page 57


 1453 05d9 DA0C0000 		.4byte	.LASF105
 1454 05dd 08       		.byte	0x8
 1455 05de 5E       		.byte	0x5e
 1456 05df CE000000 		.4byte	0xce
 1457 05e3 48       		.byte	0x48
 1458 05e4 0C       		.uleb128 0xc
 1459 05e5 2D020000 		.4byte	.LASF106
 1460 05e9 08       		.byte	0x8
 1461 05ea 5F       		.byte	0x5f
 1462 05eb CE000000 		.4byte	0xce
 1463 05ef 4C       		.byte	0x4c
 1464 05f0 0C       		.uleb128 0xc
 1465 05f1 6A100000 		.4byte	.LASF107
 1466 05f5 08       		.byte	0x8
 1467 05f6 60       		.byte	0x60
 1468 05f7 A2000000 		.4byte	0xa2
 1469 05fb 50       		.byte	0x50
 1470 05fc 0C       		.uleb128 0xc
 1471 05fd D1050000 		.4byte	.LASF108
 1472 0601 08       		.byte	0x8
 1473 0602 61       		.byte	0x61
 1474 0603 A2000000 		.4byte	0xa2
 1475 0607 51       		.byte	0x51
 1476 0608 0C       		.uleb128 0xc
 1477 0609 30090000 		.4byte	.LASF109
 1478 060d 08       		.byte	0x8
 1479 060e 62       		.byte	0x62
 1480 060f A2000000 		.4byte	0xa2
 1481 0613 52       		.byte	0x52
 1482 0614 0C       		.uleb128 0xc
 1483 0615 940A0000 		.4byte	.LASF110
 1484 0619 08       		.byte	0x8
 1485 061a 63       		.byte	0x63
 1486 061b A2000000 		.4byte	0xa2
 1487 061f 53       		.byte	0x53
 1488 0620 0C       		.uleb128 0xc
 1489 0621 1F100000 		.4byte	.LASF111
 1490 0625 08       		.byte	0x8
 1491 0626 64       		.byte	0x64
 1492 0627 A2000000 		.4byte	0xa2
 1493 062b 54       		.byte	0x54
 1494 062c 0C       		.uleb128 0xc
 1495 062d 01060000 		.4byte	.LASF112
 1496 0631 08       		.byte	0x8
 1497 0632 65       		.byte	0x65
 1498 0633 A2000000 		.4byte	0xa2
 1499 0637 55       		.byte	0x55
 1500 0638 0C       		.uleb128 0xc
 1501 0639 00000000 		.4byte	.LASF113
 1502 063d 08       		.byte	0x8
 1503 063e 66       		.byte	0x66
 1504 063f A2000000 		.4byte	0xa2
 1505 0643 56       		.byte	0x56
 1506 0644 0C       		.uleb128 0xc
 1507 0645 A40B0000 		.4byte	.LASF114
 1508 0649 08       		.byte	0x8
 1509 064a 67       		.byte	0x67
ARM GAS  C:\Users\stijn\AppData\Local\Temp\cc6b5yFd.s 			page 58


 1510 064b A2000000 		.4byte	0xa2
 1511 064f 57       		.byte	0x57
 1512 0650 0C       		.uleb128 0xc
 1513 0651 78050000 		.4byte	.LASF115
 1514 0655 08       		.byte	0x8
 1515 0656 68       		.byte	0x68
 1516 0657 A2000000 		.4byte	0xa2
 1517 065b 58       		.byte	0x58
 1518 065c 0C       		.uleb128 0xc
 1519 065d 83110000 		.4byte	.LASF116
 1520 0661 08       		.byte	0x8
 1521 0662 69       		.byte	0x69
 1522 0663 A2000000 		.4byte	0xa2
 1523 0667 59       		.byte	0x59
 1524 0668 0C       		.uleb128 0xc
 1525 0669 AC100000 		.4byte	.LASF117
 1526 066d 08       		.byte	0x8
 1527 066e 6E       		.byte	0x6e
 1528 066f B8000000 		.4byte	0xb8
 1529 0673 5A       		.byte	0x5a
 1530 0674 0C       		.uleb128 0xc
 1531 0675 BB000000 		.4byte	.LASF118
 1532 0679 08       		.byte	0x8
 1533 067a 6F       		.byte	0x6f
 1534 067b B8000000 		.4byte	0xb8
 1535 067f 5C       		.byte	0x5c
 1536 0680 0C       		.uleb128 0xc
 1537 0681 4A080000 		.4byte	.LASF119
 1538 0685 08       		.byte	0x8
 1539 0686 70       		.byte	0x70
 1540 0687 A2000000 		.4byte	0xa2
 1541 068b 5E       		.byte	0x5e
 1542 068c 0C       		.uleb128 0xc
 1543 068d 6E0B0000 		.4byte	.LASF120
 1544 0691 08       		.byte	0x8
 1545 0692 71       		.byte	0x71
 1546 0693 A2000000 		.4byte	0xa2
 1547 0697 5F       		.byte	0x5f
 1548 0698 0C       		.uleb128 0xc
 1549 0699 79060000 		.4byte	.LASF121
 1550 069d 08       		.byte	0x8
 1551 069e 72       		.byte	0x72
 1552 069f A2000000 		.4byte	0xa2
 1553 06a3 60       		.byte	0x60
 1554 06a4 0C       		.uleb128 0xc
 1555 06a5 8A070000 		.4byte	.LASF122
 1556 06a9 08       		.byte	0x8
 1557 06aa 73       		.byte	0x73
 1558 06ab CE000000 		.4byte	0xce
 1559 06af 64       		.byte	0x64
 1560 06b0 0C       		.uleb128 0xc
 1561 06b1 CC120000 		.4byte	.LASF123
 1562 06b5 08       		.byte	0x8
 1563 06b6 76       		.byte	0x76
 1564 06b7 B8000000 		.4byte	0xb8
 1565 06bb 68       		.byte	0x68
 1566 06bc 0C       		.uleb128 0xc
ARM GAS  C:\Users\stijn\AppData\Local\Temp\cc6b5yFd.s 			page 59


 1567 06bd 0E0B0000 		.4byte	.LASF124
 1568 06c1 08       		.byte	0x8
 1569 06c2 77       		.byte	0x77
 1570 06c3 B8000000 		.4byte	0xb8
 1571 06c7 6A       		.byte	0x6a
 1572 06c8 0C       		.uleb128 0xc
 1573 06c9 8B090000 		.4byte	.LASF125
 1574 06cd 08       		.byte	0x8
 1575 06ce 78       		.byte	0x78
 1576 06cf B8000000 		.4byte	0xb8
 1577 06d3 6C       		.byte	0x6c
 1578 06d4 0C       		.uleb128 0xc
 1579 06d5 F1010000 		.4byte	.LASF126
 1580 06d9 08       		.byte	0x8
 1581 06da 79       		.byte	0x79
 1582 06db B8000000 		.4byte	0xb8
 1583 06df 6E       		.byte	0x6e
 1584 06e0 0C       		.uleb128 0xc
 1585 06e1 CF070000 		.4byte	.LASF127
 1586 06e5 08       		.byte	0x8
 1587 06e6 7B       		.byte	0x7b
 1588 06e7 A2000000 		.4byte	0xa2
 1589 06eb 70       		.byte	0x70
 1590 06ec 0C       		.uleb128 0xc
 1591 06ed F8020000 		.4byte	.LASF128
 1592 06f1 08       		.byte	0x8
 1593 06f2 7C       		.byte	0x7c
 1594 06f3 A2000000 		.4byte	0xa2
 1595 06f7 71       		.byte	0x71
 1596 06f8 0C       		.uleb128 0xc
 1597 06f9 0E020000 		.4byte	.LASF129
 1598 06fd 08       		.byte	0x8
 1599 06fe 7D       		.byte	0x7d
 1600 06ff A2000000 		.4byte	0xa2
 1601 0703 72       		.byte	0x72
 1602 0704 0C       		.uleb128 0xc
 1603 0705 23010000 		.4byte	.LASF130
 1604 0709 08       		.byte	0x8
 1605 070a 7E       		.byte	0x7e
 1606 070b A2000000 		.4byte	0xa2
 1607 070f 73       		.byte	0x73
 1608 0710 0C       		.uleb128 0xc
 1609 0711 E90B0000 		.4byte	.LASF131
 1610 0715 08       		.byte	0x8
 1611 0716 80       		.byte	0x80
 1612 0717 B8000000 		.4byte	0xb8
 1613 071b 74       		.byte	0x74
 1614 071c 0C       		.uleb128 0xc
 1615 071d A60A0000 		.4byte	.LASF132
 1616 0721 08       		.byte	0x8
 1617 0722 81       		.byte	0x81
 1618 0723 B8000000 		.4byte	0xb8
 1619 0727 76       		.byte	0x76
 1620 0728 0C       		.uleb128 0xc
 1621 0729 44110000 		.4byte	.LASF133
 1622 072d 08       		.byte	0x8
 1623 072e 82       		.byte	0x82
ARM GAS  C:\Users\stijn\AppData\Local\Temp\cc6b5yFd.s 			page 60


 1624 072f B8000000 		.4byte	0xb8
 1625 0733 78       		.byte	0x78
 1626 0734 0C       		.uleb128 0xc
 1627 0735 54040000 		.4byte	.LASF134
 1628 0739 08       		.byte	0x8
 1629 073a 83       		.byte	0x83
 1630 073b B8000000 		.4byte	0xb8
 1631 073f 7A       		.byte	0x7a
 1632 0740 0C       		.uleb128 0xc
 1633 0741 C10E0000 		.4byte	.LASF135
 1634 0745 08       		.byte	0x8
 1635 0746 86       		.byte	0x86
 1636 0747 A2000000 		.4byte	0xa2
 1637 074b 7C       		.byte	0x7c
 1638 074c 0C       		.uleb128 0xc
 1639 074d 7B100000 		.4byte	.LASF136
 1640 0751 08       		.byte	0x8
 1641 0752 87       		.byte	0x87
 1642 0753 A2000000 		.4byte	0xa2
 1643 0757 7D       		.byte	0x7d
 1644 0758 0C       		.uleb128 0xc
 1645 0759 23040000 		.4byte	.LASF137
 1646 075d 08       		.byte	0x8
 1647 075e 88       		.byte	0x88
 1648 075f A2000000 		.4byte	0xa2
 1649 0763 7E       		.byte	0x7e
 1650 0764 0C       		.uleb128 0xc
 1651 0765 93030000 		.4byte	.LASF138
 1652 0769 08       		.byte	0x8
 1653 076a 89       		.byte	0x89
 1654 076b A2000000 		.4byte	0xa2
 1655 076f 7F       		.byte	0x7f
 1656 0770 0C       		.uleb128 0xc
 1657 0771 69040000 		.4byte	.LASF139
 1658 0775 08       		.byte	0x8
 1659 0776 8A       		.byte	0x8a
 1660 0777 A2000000 		.4byte	0xa2
 1661 077b 80       		.byte	0x80
 1662 077c 0C       		.uleb128 0xc
 1663 077d 54000000 		.4byte	.LASF140
 1664 0781 08       		.byte	0x8
 1665 0782 8D       		.byte	0x8d
 1666 0783 CE000000 		.4byte	0xce
 1667 0787 84       		.byte	0x84
 1668 0788 0C       		.uleb128 0xc
 1669 0789 EB0E0000 		.4byte	.LASF141
 1670 078d 08       		.byte	0x8
 1671 078e 8E       		.byte	0x8e
 1672 078f CE000000 		.4byte	0xce
 1673 0793 88       		.byte	0x88
 1674 0794 0C       		.uleb128 0xc
 1675 0795 1D0A0000 		.4byte	.LASF142
 1676 0799 08       		.byte	0x8
 1677 079a 8F       		.byte	0x8f
 1678 079b CE000000 		.4byte	0xce
 1679 079f 8C       		.byte	0x8c
 1680 07a0 0C       		.uleb128 0xc
ARM GAS  C:\Users\stijn\AppData\Local\Temp\cc6b5yFd.s 			page 61


 1681 07a1 8F0F0000 		.4byte	.LASF143
 1682 07a5 08       		.byte	0x8
 1683 07a6 90       		.byte	0x90
 1684 07a7 CE000000 		.4byte	0xce
 1685 07ab 90       		.byte	0x90
 1686 07ac 0C       		.uleb128 0xc
 1687 07ad 7A0E0000 		.4byte	.LASF144
 1688 07b1 08       		.byte	0x8
 1689 07b2 91       		.byte	0x91
 1690 07b3 CE000000 		.4byte	0xce
 1691 07b7 94       		.byte	0x94
 1692 07b8 0C       		.uleb128 0xc
 1693 07b9 0D030000 		.4byte	.LASF145
 1694 07bd 08       		.byte	0x8
 1695 07be 92       		.byte	0x92
 1696 07bf CE000000 		.4byte	0xce
 1697 07c3 98       		.byte	0x98
 1698 07c4 0C       		.uleb128 0xc
 1699 07c5 0C0F0000 		.4byte	.LASF146
 1700 07c9 08       		.byte	0x8
 1701 07ca 93       		.byte	0x93
 1702 07cb CE000000 		.4byte	0xce
 1703 07cf 9C       		.byte	0x9c
 1704 07d0 0C       		.uleb128 0xc
 1705 07d1 58060000 		.4byte	.LASF147
 1706 07d5 08       		.byte	0x8
 1707 07d6 94       		.byte	0x94
 1708 07d7 CE000000 		.4byte	0xce
 1709 07db A0       		.byte	0xa0
 1710 07dc 0C       		.uleb128 0xc
 1711 07dd D60E0000 		.4byte	.LASF148
 1712 07e1 08       		.byte	0x8
 1713 07e2 95       		.byte	0x95
 1714 07e3 B8000000 		.4byte	0xb8
 1715 07e7 A4       		.byte	0xa4
 1716 07e8 0C       		.uleb128 0xc
 1717 07e9 C30B0000 		.4byte	.LASF149
 1718 07ed 08       		.byte	0x8
 1719 07ee 96       		.byte	0x96
 1720 07ef B8000000 		.4byte	0xb8
 1721 07f3 A6       		.byte	0xa6
 1722 07f4 0C       		.uleb128 0xc
 1723 07f5 720F0000 		.4byte	.LASF150
 1724 07f9 08       		.byte	0x8
 1725 07fa 97       		.byte	0x97
 1726 07fb B8000000 		.4byte	0xb8
 1727 07ff A8       		.byte	0xa8
 1728 0800 0C       		.uleb128 0xc
 1729 0801 26080000 		.4byte	.LASF151
 1730 0805 08       		.byte	0x8
 1731 0806 98       		.byte	0x98
 1732 0807 B8000000 		.4byte	0xb8
 1733 080b AA       		.byte	0xaa
 1734 080c 0C       		.uleb128 0xc
 1735 080d 47020000 		.4byte	.LASF152
 1736 0811 08       		.byte	0x8
 1737 0812 99       		.byte	0x99
ARM GAS  C:\Users\stijn\AppData\Local\Temp\cc6b5yFd.s 			page 62


 1738 0813 B8000000 		.4byte	0xb8
 1739 0817 AC       		.byte	0xac
 1740 0818 0C       		.uleb128 0xc
 1741 0819 530A0000 		.4byte	.LASF153
 1742 081d 08       		.byte	0x8
 1743 081e 9A       		.byte	0x9a
 1744 081f B8000000 		.4byte	0xb8
 1745 0823 AE       		.byte	0xae
 1746 0824 0C       		.uleb128 0xc
 1747 0825 55020000 		.4byte	.LASF154
 1748 0829 08       		.byte	0x8
 1749 082a 9D       		.byte	0x9d
 1750 082b B8000000 		.4byte	0xb8
 1751 082f B0       		.byte	0xb0
 1752 0830 0C       		.uleb128 0xc
 1753 0831 F60F0000 		.4byte	.LASF155
 1754 0835 08       		.byte	0x8
 1755 0836 9E       		.byte	0x9e
 1756 0837 CE000000 		.4byte	0xce
 1757 083b B4       		.byte	0xb4
 1758 083c 00       		.byte	0
 1759 083d 03       		.uleb128 0x3
 1760 083e FE100000 		.4byte	.LASF156
 1761 0842 08       		.byte	0x8
 1762 0843 9F       		.byte	0x9f
 1763 0844 2C040000 		.4byte	0x42c
 1764 0848 11       		.uleb128 0x11
 1765 0849 990D0000 		.4byte	.LASF157
 1766 084d 09       		.byte	0x9
 1767 084e F601     		.2byte	0x1f6
 1768 0850 54080000 		.4byte	0x854
 1769 0854 02       		.uleb128 0x2
 1770 0855 01       		.byte	0x1
 1771 0856 08       		.byte	0x8
 1772 0857 0B070000 		.4byte	.LASF158
 1773 085b 02       		.uleb128 0x2
 1774 085c 04       		.byte	0x4
 1775 085d 04       		.byte	0x4
 1776 085e AC030000 		.4byte	.LASF159
 1777 0862 02       		.uleb128 0x2
 1778 0863 08       		.byte	0x8
 1779 0864 04       		.byte	0x4
 1780 0865 F4050000 		.4byte	.LASF160
 1781 0869 12       		.uleb128 0x12
 1782 086a 18       		.byte	0x18
 1783 086b 01       		.byte	0x1
 1784 086c 7E01     		.2byte	0x17e
 1785 086e C1080000 		.4byte	0x8c1
 1786 0872 13       		.uleb128 0x13
 1787 0873 63746C00 		.ascii	"ctl\000"
 1788 0877 01       		.byte	0x1
 1789 0878 8001     		.2byte	0x180
 1790 087a CE000000 		.4byte	0xce
 1791 087e 00       		.byte	0
 1792 087f 13       		.uleb128 0x13
 1793 0880 73726300 		.ascii	"src\000"
 1794 0884 01       		.byte	0x1
ARM GAS  C:\Users\stijn\AppData\Local\Temp\cc6b5yFd.s 			page 63


 1795 0885 8101     		.2byte	0x181
 1796 0887 CE000000 		.4byte	0xce
 1797 088b 04       		.byte	0x4
 1798 088c 13       		.uleb128 0x13
 1799 088d 64737400 		.ascii	"dst\000"
 1800 0891 01       		.byte	0x1
 1801 0892 8201     		.2byte	0x182
 1802 0894 CE000000 		.4byte	0xce
 1803 0898 08       		.byte	0x8
 1804 0899 14       		.uleb128 0x14
 1805 089a 8F120000 		.4byte	.LASF161
 1806 089e 01       		.byte	0x1
 1807 089f 8301     		.2byte	0x183
 1808 08a1 CE000000 		.4byte	0xce
 1809 08a5 0C       		.byte	0xc
 1810 08a6 14       		.uleb128 0x14
 1811 08a7 030A0000 		.4byte	.LASF162
 1812 08ab 01       		.byte	0x1
 1813 08ac 8401     		.2byte	0x184
 1814 08ae CE000000 		.4byte	0xce
 1815 08b2 10       		.byte	0x10
 1816 08b3 14       		.uleb128 0x14
 1817 08b4 EB060000 		.4byte	.LASF163
 1818 08b8 01       		.byte	0x1
 1819 08b9 8501     		.2byte	0x185
 1820 08bb CE000000 		.4byte	0xce
 1821 08bf 14       		.byte	0x14
 1822 08c0 00       		.byte	0
 1823 08c1 11       		.uleb128 0x11
 1824 08c2 C1010000 		.4byte	.LASF164
 1825 08c6 01       		.byte	0x1
 1826 08c7 8601     		.2byte	0x186
 1827 08c9 69080000 		.4byte	0x869
 1828 08cd 15       		.uleb128 0x15
 1829 08ce 04       		.byte	0x4
 1830 08cf 02       		.uleb128 0x2
 1831 08d0 01       		.byte	0x1
 1832 08d1 02       		.byte	0x2
 1833 08d2 FB050000 		.4byte	.LASF165
 1834 08d6 09       		.uleb128 0x9
 1835 08d7 01       		.byte	0x1
 1836 08d8 3E000000 		.4byte	0x3e
 1837 08dc 0A       		.byte	0xa
 1838 08dd 1304     		.2byte	0x413
 1839 08df FC080000 		.4byte	0x8fc
 1840 08e3 16       		.uleb128 0x16
 1841 08e4 D7020000 		.4byte	.LASF166
 1842 08e8 00       		.byte	0
 1843 08e9 16       		.uleb128 0x16
 1844 08ea D0040000 		.4byte	.LASF167
 1845 08ee 01       		.byte	0x1
 1846 08ef 16       		.uleb128 0x16
 1847 08f0 F3060000 		.4byte	.LASF168
 1848 08f4 02       		.byte	0x2
 1849 08f5 16       		.uleb128 0x16
 1850 08f6 6E080000 		.4byte	.LASF169
 1851 08fa 03       		.byte	0x3
ARM GAS  C:\Users\stijn\AppData\Local\Temp\cc6b5yFd.s 			page 64


 1852 08fb 00       		.byte	0
 1853 08fc 11       		.uleb128 0x11
 1854 08fd A5110000 		.4byte	.LASF170
 1855 0901 0A       		.byte	0xa
 1856 0902 1804     		.2byte	0x418
 1857 0904 D6080000 		.4byte	0x8d6
 1858 0908 12       		.uleb128 0x12
 1859 0909 78       		.byte	0x78
 1860 090a 0A       		.byte	0xa
 1861 090b 0205     		.2byte	0x502
 1862 090d D5090000 		.4byte	0x9d5
 1863 0911 14       		.uleb128 0x14
 1864 0912 19050000 		.4byte	.LASF171
 1865 0916 0A       		.byte	0xa
 1866 0917 0405     		.2byte	0x504
 1867 0919 CE000000 		.4byte	0xce
 1868 091d 00       		.byte	0
 1869 091e 14       		.uleb128 0x14
 1870 091f A40F0000 		.4byte	.LASF172
 1871 0923 0A       		.byte	0xa
 1872 0924 0505     		.2byte	0x505
 1873 0926 CE000000 		.4byte	0xce
 1874 092a 04       		.byte	0x4
 1875 092b 14       		.uleb128 0x14
 1876 092c 2D0B0000 		.4byte	.LASF173
 1877 0930 0A       		.byte	0xa
 1878 0931 0605     		.2byte	0x506
 1879 0933 CE000000 		.4byte	0xce
 1880 0937 08       		.byte	0x8
 1881 0938 14       		.uleb128 0x14
 1882 0939 220F0000 		.4byte	.LASF174
 1883 093d 0A       		.byte	0xa
 1884 093e 0705     		.2byte	0x507
 1885 0940 CE000000 		.4byte	0xce
 1886 0944 0C       		.byte	0xc
 1887 0945 14       		.uleb128 0x14
 1888 0946 AB040000 		.4byte	.LASF175
 1889 094a 0A       		.byte	0xa
 1890 094b 0805     		.2byte	0x508
 1891 094d CE000000 		.4byte	0xce
 1892 0951 10       		.byte	0x10
 1893 0952 14       		.uleb128 0x14
 1894 0953 6D0A0000 		.4byte	.LASF176
 1895 0957 0A       		.byte	0xa
 1896 0958 0905     		.2byte	0x509
 1897 095a FC080000 		.4byte	0x8fc
 1898 095e 14       		.byte	0x14
 1899 095f 14       		.uleb128 0x14
 1900 0960 10070000 		.4byte	.LASF177
 1901 0964 0A       		.byte	0xa
 1902 0965 0A05     		.2byte	0x50a
 1903 0967 CE000000 		.4byte	0xce
 1904 096b 18       		.byte	0x18
 1905 096c 14       		.uleb128 0x14
 1906 096d F8090000 		.4byte	.LASF178
 1907 0971 0A       		.byte	0xa
 1908 0972 0B05     		.2byte	0x50b
ARM GAS  C:\Users\stijn\AppData\Local\Temp\cc6b5yFd.s 			page 65


 1909 0974 D5090000 		.4byte	0x9d5
 1910 0978 1C       		.byte	0x1c
 1911 0979 14       		.uleb128 0x14
 1912 097a C3120000 		.4byte	.LASF179
 1913 097e 0A       		.byte	0xa
 1914 097f 0C05     		.2byte	0x50c
 1915 0981 CE000000 		.4byte	0xce
 1916 0985 5C       		.byte	0x5c
 1917 0986 14       		.uleb128 0x14
 1918 0987 3B020000 		.4byte	.LASF180
 1919 098b 0A       		.byte	0xa
 1920 098c 0D05     		.2byte	0x50d
 1921 098e CE000000 		.4byte	0xce
 1922 0992 60       		.byte	0x60
 1923 0993 14       		.uleb128 0x14
 1924 0994 97110000 		.4byte	.LASF181
 1925 0998 0A       		.byte	0xa
 1926 0999 0E05     		.2byte	0x50e
 1927 099b CE000000 		.4byte	0xce
 1928 099f 64       		.byte	0x64
 1929 09a0 14       		.uleb128 0x14
 1930 09a1 9A0B0000 		.4byte	.LASF182
 1931 09a5 0A       		.byte	0xa
 1932 09a6 0F05     		.2byte	0x50f
 1933 09a8 CE000000 		.4byte	0xce
 1934 09ac 68       		.byte	0x68
 1935 09ad 14       		.uleb128 0x14
 1936 09ae 02080000 		.4byte	.LASF183
 1937 09b2 0A       		.byte	0xa
 1938 09b3 1005     		.2byte	0x510
 1939 09b5 CE000000 		.4byte	0xce
 1940 09b9 6C       		.byte	0x6c
 1941 09ba 14       		.uleb128 0x14
 1942 09bb 15110000 		.4byte	.LASF184
 1943 09bf 0A       		.byte	0xa
 1944 09c0 1105     		.2byte	0x511
 1945 09c2 CF080000 		.4byte	0x8cf
 1946 09c6 70       		.byte	0x70
 1947 09c7 14       		.uleb128 0x14
 1948 09c8 9F060000 		.4byte	.LASF185
 1949 09cc 0A       		.byte	0xa
 1950 09cd 1205     		.2byte	0x512
 1951 09cf CE000000 		.4byte	0xce
 1952 09d3 74       		.byte	0x74
 1953 09d4 00       		.byte	0
 1954 09d5 07       		.uleb128 0x7
 1955 09d6 CE000000 		.4byte	0xce
 1956 09da E5090000 		.4byte	0x9e5
 1957 09de 08       		.uleb128 0x8
 1958 09df D9000000 		.4byte	0xd9
 1959 09e3 0F       		.byte	0xf
 1960 09e4 00       		.byte	0
 1961 09e5 11       		.uleb128 0x11
 1962 09e6 FE040000 		.4byte	.LASF186
 1963 09ea 0A       		.byte	0xa
 1964 09eb 1305     		.2byte	0x513
 1965 09ed 08090000 		.4byte	0x908
ARM GAS  C:\Users\stijn\AppData\Local\Temp\cc6b5yFd.s 			page 66


 1966 09f1 09       		.uleb128 0x9
 1967 09f2 01       		.byte	0x1
 1968 09f3 3E000000 		.4byte	0x3e
 1969 09f7 0B       		.byte	0xb
 1970 09f8 2402     		.2byte	0x224
 1971 09fa 0B0A0000 		.4byte	0xa0b
 1972 09fe 16       		.uleb128 0x16
 1973 09ff BD0C0000 		.4byte	.LASF187
 1974 0a03 00       		.byte	0
 1975 0a04 16       		.uleb128 0x16
 1976 0a05 63020000 		.4byte	.LASF188
 1977 0a09 01       		.byte	0x1
 1978 0a0a 00       		.byte	0
 1979 0a0b 11       		.uleb128 0x11
 1980 0a0c D9010000 		.4byte	.LASF189
 1981 0a10 0B       		.byte	0xb
 1982 0a11 2702     		.2byte	0x227
 1983 0a13 F1090000 		.4byte	0x9f1
 1984 0a17 11       		.uleb128 0x11
 1985 0a18 DF000000 		.4byte	.LASF190
 1986 0a1c 0B       		.byte	0xb
 1987 0a1d 3902     		.2byte	0x239
 1988 0a1f 230A0000 		.4byte	0xa23
 1989 0a23 17       		.uleb128 0x17
 1990 0a24 04       		.byte	0x4
 1991 0a25 290A0000 		.4byte	0xa29
 1992 0a29 18       		.uleb128 0x18
 1993 0a2a 340A0000 		.4byte	0xa34
 1994 0a2e 19       		.uleb128 0x19
 1995 0a2f CE000000 		.4byte	0xce
 1996 0a33 00       		.byte	0
 1997 0a34 11       		.uleb128 0x11
 1998 0a35 86020000 		.4byte	.LASF191
 1999 0a39 0B       		.byte	0xb
 2000 0a3a 4402     		.2byte	0x244
 2001 0a3c 400A0000 		.4byte	0xa40
 2002 0a40 17       		.uleb128 0x17
 2003 0a41 04       		.byte	0x4
 2004 0a42 460A0000 		.4byte	0xa46
 2005 0a46 1A       		.uleb128 0x1a
 2006 0a47 0B0A0000 		.4byte	0xa0b
 2007 0a4b 550A0000 		.4byte	0xa55
 2008 0a4f 19       		.uleb128 0x19
 2009 0a50 CE000000 		.4byte	0xce
 2010 0a54 00       		.byte	0
 2011 0a55 1B       		.uleb128 0x1b
 2012 0a56 C0020000 		.4byte	.LASF214
 2013 0a5a 4C       		.byte	0x4c
 2014 0a5b 0B       		.byte	0xb
 2015 0a5c C302     		.2byte	0x2c3
 2016 0a5e 740B0000 		.4byte	0xb74
 2017 0a62 14       		.uleb128 0x14
 2018 0a63 15060000 		.4byte	.LASF192
 2019 0a67 0B       		.byte	0xb
 2020 0a68 C602     		.2byte	0x2c6
 2021 0a6a CF080000 		.4byte	0x8cf
 2022 0a6e 00       		.byte	0
ARM GAS  C:\Users\stijn\AppData\Local\Temp\cc6b5yFd.s 			page 67


 2023 0a6f 14       		.uleb128 0x14
 2024 0a70 4C090000 		.4byte	.LASF193
 2025 0a74 0B       		.byte	0xb
 2026 0a75 C702     		.2byte	0x2c7
 2027 0a77 CF080000 		.4byte	0x8cf
 2028 0a7b 01       		.byte	0x1
 2029 0a7c 14       		.uleb128 0x14
 2030 0a7d 48100000 		.4byte	.LASF194
 2031 0a81 0B       		.byte	0xb
 2032 0a82 C902     		.2byte	0x2c9
 2033 0a84 E0000000 		.4byte	0xe0
 2034 0a88 04       		.byte	0x4
 2035 0a89 14       		.uleb128 0x14
 2036 0a8a 76000000 		.4byte	.LASF195
 2037 0a8e 0B       		.byte	0xb
 2038 0a8f CB02     		.2byte	0x2cb
 2039 0a91 E0000000 		.4byte	0xe0
 2040 0a95 08       		.byte	0x8
 2041 0a96 14       		.uleb128 0x14
 2042 0a97 610A0000 		.4byte	.LASF196
 2043 0a9b 0B       		.byte	0xb
 2044 0a9c CC02     		.2byte	0x2cc
 2045 0a9e CF080000 		.4byte	0x8cf
 2046 0aa2 0C       		.byte	0xc
 2047 0aa3 14       		.uleb128 0x14
 2048 0aa4 76090000 		.4byte	.LASF197
 2049 0aa8 0B       		.byte	0xb
 2050 0aa9 CD02     		.2byte	0x2cd
 2051 0aab CF080000 		.4byte	0x8cf
 2052 0aaf 0D       		.byte	0xd
 2053 0ab0 14       		.uleb128 0x14
 2054 0ab1 200B0000 		.4byte	.LASF198
 2055 0ab5 0B       		.byte	0xb
 2056 0ab6 CF02     		.2byte	0x2cf
 2057 0ab8 740B0000 		.4byte	0xb74
 2058 0abc 10       		.byte	0x10
 2059 0abd 14       		.uleb128 0x14
 2060 0abe 4E070000 		.4byte	.LASF199
 2061 0ac2 0B       		.byte	0xb
 2062 0ac3 D002     		.2byte	0x2d0
 2063 0ac5 CE000000 		.4byte	0xce
 2064 0ac9 14       		.byte	0x14
 2065 0aca 14       		.uleb128 0x14
 2066 0acb FD000000 		.4byte	.LASF200
 2067 0acf 0B       		.byte	0xb
 2068 0ad0 D102     		.2byte	0x2d1
 2069 0ad2 E0000000 		.4byte	0xe0
 2070 0ad6 18       		.byte	0x18
 2071 0ad7 14       		.uleb128 0x14
 2072 0ad8 BE060000 		.4byte	.LASF201
 2073 0adc 0B       		.byte	0xb
 2074 0add D202     		.2byte	0x2d2
 2075 0adf E0000000 		.4byte	0xe0
 2076 0ae3 1C       		.byte	0x1c
 2077 0ae4 14       		.uleb128 0x14
 2078 0ae5 E6120000 		.4byte	.LASF202
 2079 0ae9 0B       		.byte	0xb
ARM GAS  C:\Users\stijn\AppData\Local\Temp\cc6b5yFd.s 			page 68


 2080 0aea D402     		.2byte	0x2d4
 2081 0aec E0000000 		.4byte	0xe0
 2082 0af0 20       		.byte	0x20
 2083 0af1 14       		.uleb128 0x14
 2084 0af2 FE010000 		.4byte	.LASF203
 2085 0af6 0B       		.byte	0xb
 2086 0af7 D502     		.2byte	0x2d5
 2087 0af9 7A0B0000 		.4byte	0xb7a
 2088 0afd 24       		.byte	0x24
 2089 0afe 14       		.uleb128 0x14
 2090 0aff 38030000 		.4byte	.LASF204
 2091 0b03 0B       		.byte	0xb
 2092 0b04 D702     		.2byte	0x2d7
 2093 0b06 740B0000 		.4byte	0xb74
 2094 0b0a 28       		.byte	0x28
 2095 0b0b 14       		.uleb128 0x14
 2096 0b0c BE040000 		.4byte	.LASF205
 2097 0b10 0B       		.byte	0xb
 2098 0b11 D802     		.2byte	0x2d8
 2099 0b13 CE000000 		.4byte	0xce
 2100 0b17 2C       		.byte	0x2c
 2101 0b18 14       		.uleb128 0x14
 2102 0b19 46030000 		.4byte	.LASF206
 2103 0b1d 0B       		.byte	0xb
 2104 0b1e D902     		.2byte	0x2d9
 2105 0b20 E0000000 		.4byte	0xe0
 2106 0b24 30       		.byte	0x30
 2107 0b25 14       		.uleb128 0x14
 2108 0b26 B5070000 		.4byte	.LASF207
 2109 0b2a 0B       		.byte	0xb
 2110 0b2b DA02     		.2byte	0x2da
 2111 0b2d E0000000 		.4byte	0xe0
 2112 0b31 34       		.byte	0x34
 2113 0b32 14       		.uleb128 0x14
 2114 0b33 78010000 		.4byte	.LASF208
 2115 0b37 0B       		.byte	0xb
 2116 0b38 DC02     		.2byte	0x2dc
 2117 0b3a 740B0000 		.4byte	0xb74
 2118 0b3e 38       		.byte	0x38
 2119 0b3f 14       		.uleb128 0x14
 2120 0b40 B90A0000 		.4byte	.LASF209
 2121 0b44 0B       		.byte	0xb
 2122 0b45 DD02     		.2byte	0x2dd
 2123 0b47 CE000000 		.4byte	0xce
 2124 0b4b 3C       		.byte	0x3c
 2125 0b4c 14       		.uleb128 0x14
 2126 0b4d 420A0000 		.4byte	.LASF210
 2127 0b51 0B       		.byte	0xb
 2128 0b52 DE02     		.2byte	0x2de
 2129 0b54 E0000000 		.4byte	0xe0
 2130 0b58 40       		.byte	0x40
 2131 0b59 14       		.uleb128 0x14
 2132 0b5a E3050000 		.4byte	.LASF211
 2133 0b5e 0B       		.byte	0xb
 2134 0b5f E402     		.2byte	0x2e4
 2135 0b61 170A0000 		.4byte	0xa17
 2136 0b65 44       		.byte	0x44
ARM GAS  C:\Users\stijn\AppData\Local\Temp\cc6b5yFd.s 			page 69


 2137 0b66 14       		.uleb128 0x14
 2138 0b67 9E010000 		.4byte	.LASF212
 2139 0b6b 0B       		.byte	0xb
 2140 0b6c EB02     		.2byte	0x2eb
 2141 0b6e 340A0000 		.4byte	0xa34
 2142 0b72 48       		.byte	0x48
 2143 0b73 00       		.byte	0
 2144 0b74 17       		.uleb128 0x17
 2145 0b75 04       		.byte	0x4
 2146 0b76 A2000000 		.4byte	0xa2
 2147 0b7a 05       		.uleb128 0x5
 2148 0b7b CF080000 		.4byte	0x8cf
 2149 0b7f 11       		.uleb128 0x11
 2150 0b80 60110000 		.4byte	.LASF213
 2151 0b84 0B       		.byte	0xb
 2152 0b85 EE02     		.2byte	0x2ee
 2153 0b87 550A0000 		.4byte	0xa55
 2154 0b8b 1B       		.uleb128 0x1b
 2155 0b8c 94120000 		.4byte	.LASF215
 2156 0b90 10       		.byte	0x10
 2157 0b91 0B       		.byte	0xb
 2158 0b92 F102     		.2byte	0x2f1
 2159 0b94 CD0B0000 		.4byte	0xbcd
 2160 0b98 14       		.uleb128 0x14
 2161 0b99 B6120000 		.4byte	.LASF216
 2162 0b9d 0B       		.byte	0xb
 2163 0b9e F402     		.2byte	0x2f4
 2164 0ba0 A2000000 		.4byte	0xa2
 2165 0ba4 00       		.byte	0
 2166 0ba5 14       		.uleb128 0x14
 2167 0ba6 B4000000 		.4byte	.LASF217
 2168 0baa 0B       		.byte	0xb
 2169 0bab FA02     		.2byte	0x2fa
 2170 0bad 740B0000 		.4byte	0xb74
 2171 0bb1 04       		.byte	0x4
 2172 0bb2 14       		.uleb128 0x14
 2173 0bb3 44000000 		.4byte	.LASF218
 2174 0bb7 0B       		.byte	0xb
 2175 0bb8 FD02     		.2byte	0x2fd
 2176 0bba CE000000 		.4byte	0xce
 2177 0bbe 08       		.byte	0x8
 2178 0bbf 14       		.uleb128 0x14
 2179 0bc0 AF0F0000 		.4byte	.LASF219
 2180 0bc4 0B       		.byte	0xb
 2181 0bc5 0D03     		.2byte	0x30d
 2182 0bc7 CF080000 		.4byte	0x8cf
 2183 0bcb 0C       		.byte	0xc
 2184 0bcc 00       		.byte	0
 2185 0bcd 11       		.uleb128 0x11
 2186 0bce 2F0F0000 		.4byte	.LASF220
 2187 0bd2 0B       		.byte	0xb
 2188 0bd3 0E03     		.2byte	0x30e
 2189 0bd5 8B0B0000 		.4byte	0xb8b
 2190 0bd9 11       		.uleb128 0x11
 2191 0bda D9090000 		.4byte	.LASF221
 2192 0bde 0C       		.byte	0xc
 2193 0bdf D901     		.2byte	0x1d9
ARM GAS  C:\Users\stijn\AppData\Local\Temp\cc6b5yFd.s 			page 70


 2194 0be1 230A0000 		.4byte	0xa23
 2195 0be5 1B       		.uleb128 0x1b
 2196 0be6 F7030000 		.4byte	.LASF222
 2197 0bea 38       		.byte	0x38
 2198 0beb 0C       		.byte	0xc
 2199 0bec 7502     		.2byte	0x275
 2200 0bee A90C0000 		.4byte	0xca9
 2201 0bf2 14       		.uleb128 0x14
 2202 0bf3 8F000000 		.4byte	.LASF223
 2203 0bf7 0C       		.byte	0xc
 2204 0bf8 7802     		.2byte	0x278
 2205 0bfa E0000000 		.4byte	0xe0
 2206 0bfe 00       		.byte	0
 2207 0bff 14       		.uleb128 0x14
 2208 0c00 53050000 		.4byte	.LASF224
 2209 0c04 0C       		.byte	0xc
 2210 0c05 7902     		.2byte	0x279
 2211 0c07 E0000000 		.4byte	0xe0
 2212 0c0b 04       		.byte	0x4
 2213 0c0c 14       		.uleb128 0x14
 2214 0c0d DE0A0000 		.4byte	.LASF225
 2215 0c11 0C       		.byte	0xc
 2216 0c12 7B02     		.2byte	0x27b
 2217 0c14 CD080000 		.4byte	0x8cd
 2218 0c18 08       		.byte	0x8
 2219 0c19 14       		.uleb128 0x14
 2220 0c1a 85030000 		.4byte	.LASF226
 2221 0c1e 0C       		.byte	0xc
 2222 0c1f 7C02     		.2byte	0x27c
 2223 0c21 CE000000 		.4byte	0xce
 2224 0c25 0C       		.byte	0xc
 2225 0c26 14       		.uleb128 0x14
 2226 0c27 AF090000 		.4byte	.LASF227
 2227 0c2b 0C       		.byte	0xc
 2228 0c2c 7D02     		.2byte	0x27d
 2229 0c2e E0000000 		.4byte	0xe0
 2230 0c32 10       		.byte	0x10
 2231 0c33 14       		.uleb128 0x14
 2232 0c34 24070000 		.4byte	.LASF228
 2233 0c38 0C       		.byte	0xc
 2234 0c39 7E02     		.2byte	0x27e
 2235 0c3b E0000000 		.4byte	0xe0
 2236 0c3f 14       		.byte	0x14
 2237 0c40 14       		.uleb128 0x14
 2238 0c41 5C050000 		.4byte	.LASF229
 2239 0c45 0C       		.byte	0xc
 2240 0c46 8002     		.2byte	0x280
 2241 0c48 CD080000 		.4byte	0x8cd
 2242 0c4c 18       		.byte	0x18
 2243 0c4d 14       		.uleb128 0x14
 2244 0c4e DC120000 		.4byte	.LASF230
 2245 0c52 0C       		.byte	0xc
 2246 0c53 8102     		.2byte	0x281
 2247 0c55 CE000000 		.4byte	0xce
 2248 0c59 1C       		.byte	0x1c
 2249 0c5a 14       		.uleb128 0x14
 2250 0c5b 6E070000 		.4byte	.LASF231
ARM GAS  C:\Users\stijn\AppData\Local\Temp\cc6b5yFd.s 			page 71


 2251 0c5f 0C       		.byte	0xc
 2252 0c60 8202     		.2byte	0x282
 2253 0c62 E0000000 		.4byte	0xe0
 2254 0c66 20       		.byte	0x20
 2255 0c67 14       		.uleb128 0x14
 2256 0c68 830A0000 		.4byte	.LASF232
 2257 0c6c 0C       		.byte	0xc
 2258 0c6d 8402     		.2byte	0x284
 2259 0c6f CD080000 		.4byte	0x8cd
 2260 0c73 24       		.byte	0x24
 2261 0c74 14       		.uleb128 0x14
 2262 0c75 080A0000 		.4byte	.LASF233
 2263 0c79 0C       		.byte	0xc
 2264 0c7a 8502     		.2byte	0x285
 2265 0c7c CE000000 		.4byte	0xce
 2266 0c80 28       		.byte	0x28
 2267 0c81 14       		.uleb128 0x14
 2268 0c82 5D0E0000 		.4byte	.LASF234
 2269 0c86 0C       		.byte	0xc
 2270 0c87 8602     		.2byte	0x286
 2271 0c89 E0000000 		.4byte	0xe0
 2272 0c8d 2C       		.byte	0x2c
 2273 0c8e 14       		.uleb128 0x14
 2274 0c8f E3050000 		.4byte	.LASF211
 2275 0c93 0C       		.byte	0xc
 2276 0c94 8B02     		.2byte	0x28b
 2277 0c96 D90B0000 		.4byte	0xbd9
 2278 0c9a 30       		.byte	0x30
 2279 0c9b 14       		.uleb128 0x14
 2280 0c9c 82070000 		.4byte	.LASF235
 2281 0ca0 0C       		.byte	0xc
 2282 0ca1 8E02     		.2byte	0x28e
 2283 0ca3 CE000000 		.4byte	0xce
 2284 0ca7 34       		.byte	0x34
 2285 0ca8 00       		.byte	0
 2286 0ca9 11       		.uleb128 0x11
 2287 0caa C0030000 		.4byte	.LASF236
 2288 0cae 0C       		.byte	0xc
 2289 0caf 9102     		.2byte	0x291
 2290 0cb1 E50B0000 		.4byte	0xbe5
 2291 0cb5 1C       		.uleb128 0x1c
 2292 0cb6 C5100000 		.4byte	.LASF237
 2293 0cba 4C       		.byte	0x4c
 2294 0cbb 0D       		.byte	0xd
 2295 0cbc 2F       		.byte	0x2f
 2296 0cbd A60D0000 		.4byte	0xda6
 2297 0cc1 0C       		.uleb128 0xc
 2298 0cc2 A5100000 		.4byte	.LASF238
 2299 0cc6 0D       		.byte	0xd
 2300 0cc7 31       		.byte	0x31
 2301 0cc8 CE000000 		.4byte	0xce
 2302 0ccc 00       		.byte	0
 2303 0ccd 0C       		.uleb128 0xc
 2304 0cce 5F070000 		.4byte	.LASF239
 2305 0cd2 0D       		.byte	0xd
 2306 0cd3 33       		.byte	0x33
 2307 0cd4 CE000000 		.4byte	0xce
ARM GAS  C:\Users\stijn\AppData\Local\Temp\cc6b5yFd.s 			page 72


 2308 0cd8 04       		.byte	0x4
 2309 0cd9 0C       		.uleb128 0xc
 2310 0cda 060B0000 		.4byte	.LASF240
 2311 0cde 0D       		.byte	0xd
 2312 0cdf 34       		.byte	0x34
 2313 0ce0 CE000000 		.4byte	0xce
 2314 0ce4 08       		.byte	0x8
 2315 0ce5 0C       		.uleb128 0xc
 2316 0ce6 EC0C0000 		.4byte	.LASF241
 2317 0cea 0D       		.byte	0xd
 2318 0ceb 35       		.byte	0x35
 2319 0cec CE000000 		.4byte	0xce
 2320 0cf0 0C       		.byte	0xc
 2321 0cf1 0C       		.uleb128 0xc
 2322 0cf2 D80B0000 		.4byte	.LASF242
 2323 0cf6 0D       		.byte	0xd
 2324 0cf7 37       		.byte	0x37
 2325 0cf8 CE000000 		.4byte	0xce
 2326 0cfc 10       		.byte	0x10
 2327 0cfd 0C       		.uleb128 0xc
 2328 0cfe A2020000 		.4byte	.LASF243
 2329 0d02 0D       		.byte	0xd
 2330 0d03 38       		.byte	0x38
 2331 0d04 CE000000 		.4byte	0xce
 2332 0d08 14       		.byte	0x14
 2333 0d09 0C       		.uleb128 0xc
 2334 0d0a AB020000 		.4byte	.LASF244
 2335 0d0e 0D       		.byte	0xd
 2336 0d0f 39       		.byte	0x39
 2337 0d10 CE000000 		.4byte	0xce
 2338 0d14 18       		.byte	0x18
 2339 0d15 0C       		.uleb128 0xc
 2340 0d16 640C0000 		.4byte	.LASF245
 2341 0d1a 0D       		.byte	0xd
 2342 0d1b 3A       		.byte	0x3a
 2343 0d1c CF080000 		.4byte	0x8cf
 2344 0d20 1C       		.byte	0x1c
 2345 0d21 0C       		.uleb128 0xc
 2346 0d22 530C0000 		.4byte	.LASF246
 2347 0d26 0D       		.byte	0xd
 2348 0d27 3C       		.byte	0x3c
 2349 0d28 CE000000 		.4byte	0xce
 2350 0d2c 20       		.byte	0x20
 2351 0d2d 0C       		.uleb128 0xc
 2352 0d2e 2D050000 		.4byte	.LASF247
 2353 0d32 0D       		.byte	0xd
 2354 0d33 3D       		.byte	0x3d
 2355 0d34 CE000000 		.4byte	0xce
 2356 0d38 24       		.byte	0x24
 2357 0d39 0C       		.uleb128 0xc
 2358 0d3a DE060000 		.4byte	.LASF248
 2359 0d3e 0D       		.byte	0xd
 2360 0d3f 3F       		.byte	0x3f
 2361 0d40 CE000000 		.4byte	0xce
 2362 0d44 28       		.byte	0x28
 2363 0d45 0C       		.uleb128 0xc
 2364 0d46 C9090000 		.4byte	.LASF249
ARM GAS  C:\Users\stijn\AppData\Local\Temp\cc6b5yFd.s 			page 73


 2365 0d4a 0D       		.byte	0xd
 2366 0d4b 40       		.byte	0x40
 2367 0d4c CE000000 		.4byte	0xce
 2368 0d50 2C       		.byte	0x2c
 2369 0d51 0C       		.uleb128 0xc
 2370 0d52 0F040000 		.4byte	.LASF250
 2371 0d56 0D       		.byte	0xd
 2372 0d57 42       		.byte	0x42
 2373 0d58 CE000000 		.4byte	0xce
 2374 0d5c 30       		.byte	0x30
 2375 0d5d 0C       		.uleb128 0xc
 2376 0d5e 1E050000 		.4byte	.LASF251
 2377 0d62 0D       		.byte	0xd
 2378 0d63 43       		.byte	0x43
 2379 0d64 CE000000 		.4byte	0xce
 2380 0d68 34       		.byte	0x34
 2381 0d69 0C       		.uleb128 0xc
 2382 0d6a F2120000 		.4byte	.LASF252
 2383 0d6e 0D       		.byte	0xd
 2384 0d6f 45       		.byte	0x45
 2385 0d70 CE000000 		.4byte	0xce
 2386 0d74 38       		.byte	0x38
 2387 0d75 0C       		.uleb128 0xc
 2388 0d76 1C000000 		.4byte	.LASF253
 2389 0d7a 0D       		.byte	0xd
 2390 0d7b 46       		.byte	0x46
 2391 0d7c CE000000 		.4byte	0xce
 2392 0d80 3C       		.byte	0x3c
 2393 0d81 0C       		.uleb128 0xc
 2394 0d82 AD010000 		.4byte	.LASF254
 2395 0d86 0D       		.byte	0xd
 2396 0d87 48       		.byte	0x48
 2397 0d88 CE000000 		.4byte	0xce
 2398 0d8c 40       		.byte	0x40
 2399 0d8d 0C       		.uleb128 0xc
 2400 0d8e A20C0000 		.4byte	.LASF255
 2401 0d92 0D       		.byte	0xd
 2402 0d93 49       		.byte	0x49
 2403 0d94 CE000000 		.4byte	0xce
 2404 0d98 44       		.byte	0x44
 2405 0d99 0C       		.uleb128 0xc
 2406 0d9a 0A100000 		.4byte	.LASF256
 2407 0d9e 0D       		.byte	0xd
 2408 0d9f 4B       		.byte	0x4b
 2409 0da0 CE000000 		.4byte	0xce
 2410 0da4 48       		.byte	0x48
 2411 0da5 00       		.byte	0
 2412 0da6 03       		.uleb128 0x3
 2413 0da7 500B0000 		.4byte	.LASF257
 2414 0dab 0D       		.byte	0xd
 2415 0dac 4C       		.byte	0x4c
 2416 0dad B50C0000 		.4byte	0xcb5
 2417 0db1 0B       		.uleb128 0xb
 2418 0db2 14       		.byte	0x14
 2419 0db3 0E       		.byte	0xe
 2420 0db4 3B       		.byte	0x3b
 2421 0db5 F60D0000 		.4byte	0xdf6
ARM GAS  C:\Users\stijn\AppData\Local\Temp\cc6b5yFd.s 			page 74


 2422 0db9 0C       		.uleb128 0xc
 2423 0dba 6C010000 		.4byte	.LASF258
 2424 0dbe 0E       		.byte	0xe
 2425 0dbf 3D       		.byte	0x3d
 2426 0dc0 CE000000 		.4byte	0xce
 2427 0dc4 00       		.byte	0
 2428 0dc5 0C       		.uleb128 0xc
 2429 0dc6 EB030000 		.4byte	.LASF259
 2430 0dca 0E       		.byte	0xe
 2431 0dcb 3E       		.byte	0x3e
 2432 0dcc CE000000 		.4byte	0xce
 2433 0dd0 04       		.byte	0x4
 2434 0dd1 0C       		.uleb128 0xc
 2435 0dd2 92010000 		.4byte	.LASF260
 2436 0dd6 0E       		.byte	0xe
 2437 0dd7 3F       		.byte	0x3f
 2438 0dd8 F60D0000 		.4byte	0xdf6
 2439 0ddc 08       		.byte	0x8
 2440 0ddd 0C       		.uleb128 0xc
 2441 0dde A30E0000 		.4byte	.LASF261
 2442 0de2 0E       		.byte	0xe
 2443 0de3 40       		.byte	0x40
 2444 0de4 CE000000 		.4byte	0xce
 2445 0de8 0C       		.byte	0xc
 2446 0de9 0C       		.uleb128 0xc
 2447 0dea 3D100000 		.4byte	.LASF262
 2448 0dee 0E       		.byte	0xe
 2449 0def 45       		.byte	0x45
 2450 0df0 CE000000 		.4byte	0xce
 2451 0df4 10       		.byte	0x10
 2452 0df5 00       		.byte	0
 2453 0df6 17       		.uleb128 0x17
 2454 0df7 04       		.byte	0x4
 2455 0df8 FC0D0000 		.4byte	0xdfc
 2456 0dfc 06       		.uleb128 0x6
 2457 0dfd E5090000 		.4byte	0x9e5
 2458 0e01 03       		.uleb128 0x3
 2459 0e02 F0070000 		.4byte	.LASF263
 2460 0e06 0E       		.byte	0xe
 2461 0e07 48       		.byte	0x48
 2462 0e08 B10D0000 		.4byte	0xdb1
 2463 0e0c 03       		.uleb128 0x3
 2464 0e0d 890A0000 		.4byte	.LASF264
 2465 0e11 0F       		.byte	0xf
 2466 0e12 3F       		.byte	0x3f
 2467 0e13 CE000000 		.4byte	0xce
 2468 0e17 1D       		.uleb128 0x1d
 2469 0e18 3B060000 		.4byte	.LASF318
 2470 0e1c 01       		.byte	0x1
 2471 0e1d 3E000000 		.4byte	0x3e
 2472 0e21 11       		.byte	0x11
 2473 0e22 24       		.byte	0x24
 2474 0e23 580E0000 		.4byte	0xe58
 2475 0e27 16       		.uleb128 0x16
 2476 0e28 4F000000 		.4byte	.LASF265
 2477 0e2c 00       		.byte	0
 2478 0e2d 16       		.uleb128 0x16
ARM GAS  C:\Users\stijn\AppData\Local\Temp\cc6b5yFd.s 			page 75


 2479 0e2e 12080000 		.4byte	.LASF266
 2480 0e32 01       		.byte	0x1
 2481 0e33 16       		.uleb128 0x16
 2482 0e34 17080000 		.4byte	.LASF267
 2483 0e38 02       		.byte	0x2
 2484 0e39 16       		.uleb128 0x16
 2485 0e3a 1C080000 		.4byte	.LASF268
 2486 0e3e 03       		.byte	0x3
 2487 0e3f 16       		.uleb128 0x16
 2488 0e40 21080000 		.4byte	.LASF269
 2489 0e44 04       		.byte	0x4
 2490 0e45 16       		.uleb128 0x16
 2491 0e46 760C0000 		.4byte	.LASF270
 2492 0e4a 05       		.byte	0x5
 2493 0e4b 16       		.uleb128 0x16
 2494 0e4c 14000000 		.4byte	.LASF271
 2495 0e50 06       		.byte	0x6
 2496 0e51 1E       		.uleb128 0x1e
 2497 0e52 52485400 		.ascii	"RHT\000"
 2498 0e56 07       		.byte	0x7
 2499 0e57 00       		.byte	0
 2500 0e58 1F       		.uleb128 0x1f
 2501 0e59 B4050000 		.4byte	.LASF275
 2502 0e5d 01       		.byte	0x1
 2503 0e5e DF05     		.2byte	0x5df
 2504 0e60 00000000 		.4byte	.LFB170
 2505 0e64 A8000000 		.4byte	.LFE170-.LFB170
 2506 0e68 01       		.uleb128 0x1
 2507 0e69 9C       		.byte	0x9c
 2508 0e6a 9C0E0000 		.4byte	0xe9c
 2509 0e6e 20       		.uleb128 0x20
 2510 0e6f E6030000 		.4byte	.LASF272
 2511 0e73 01       		.byte	0x1
 2512 0e74 DF05     		.2byte	0x5df
 2513 0e76 9C0E0000 		.4byte	0xe9c
 2514 0e7a 02       		.uleb128 0x2
 2515 0e7b 91       		.byte	0x91
 2516 0e7c 74       		.sleb128 -12
 2517 0e7d 20       		.uleb128 0x20
 2518 0e7e 3A0B0000 		.4byte	.LASF273
 2519 0e82 01       		.byte	0x1
 2520 0e83 DF05     		.2byte	0x5df
 2521 0e85 CE000000 		.4byte	0xce
 2522 0e89 02       		.uleb128 0x2
 2523 0e8a 91       		.byte	0x91
 2524 0e8b 70       		.sleb128 -16
 2525 0e8c 20       		.uleb128 0x20
 2526 0e8d 43060000 		.4byte	.LASF274
 2527 0e91 01       		.byte	0x1
 2528 0e92 DF05     		.2byte	0x5df
 2529 0e94 A20E0000 		.4byte	0xea2
 2530 0e98 02       		.uleb128 0x2
 2531 0e99 91       		.byte	0x91
 2532 0e9a 6C       		.sleb128 -20
 2533 0e9b 00       		.byte	0
 2534 0e9c 17       		.uleb128 0x17
 2535 0e9d 04       		.byte	0x4
ARM GAS  C:\Users\stijn\AppData\Local\Temp\cc6b5yFd.s 			page 76


 2536 0e9e 6B030000 		.4byte	0x36b
 2537 0ea2 17       		.uleb128 0x17
 2538 0ea3 04       		.byte	0x4
 2539 0ea4 A80E0000 		.4byte	0xea8
 2540 0ea8 06       		.uleb128 0x6
 2541 0ea9 C1080000 		.4byte	0x8c1
 2542 0ead 1F       		.uleb128 0x1f
 2543 0eae BB0F0000 		.4byte	.LASF276
 2544 0eb2 01       		.byte	0x1
 2545 0eb3 F805     		.2byte	0x5f8
 2546 0eb5 00000000 		.4byte	.LFB171
 2547 0eb9 80000000 		.4byte	.LFE171-.LFB171
 2548 0ebd 01       		.uleb128 0x1
 2549 0ebe 9C       		.byte	0x9c
 2550 0ebf E20E0000 		.4byte	0xee2
 2551 0ec3 20       		.uleb128 0x20
 2552 0ec4 E6030000 		.4byte	.LASF272
 2553 0ec8 01       		.byte	0x1
 2554 0ec9 F805     		.2byte	0x5f8
 2555 0ecb 9C0E0000 		.4byte	0xe9c
 2556 0ecf 02       		.uleb128 0x2
 2557 0ed0 91       		.byte	0x91
 2558 0ed1 74       		.sleb128 -12
 2559 0ed2 20       		.uleb128 0x20
 2560 0ed3 3A0B0000 		.4byte	.LASF273
 2561 0ed7 01       		.byte	0x1
 2562 0ed8 F805     		.2byte	0x5f8
 2563 0eda CE000000 		.4byte	0xce
 2564 0ede 02       		.uleb128 0x2
 2565 0edf 91       		.byte	0x91
 2566 0ee0 70       		.sleb128 -16
 2567 0ee1 00       		.byte	0
 2568 0ee2 21       		.uleb128 0x21
 2569 0ee3 32070000 		.4byte	.LASF279
 2570 0ee7 02       		.byte	0x2
 2571 0ee8 23       		.byte	0x23
 2572 0ee9 A2000000 		.4byte	0xa2
 2573 0eed 00000000 		.4byte	.LFB1098
 2574 0ef1 82000000 		.4byte	.LFE1098-.LFB1098
 2575 0ef5 01       		.uleb128 0x1
 2576 0ef6 9C       		.byte	0x9c
 2577 0ef7 260F0000 		.4byte	0xf26
 2578 0efb 22       		.uleb128 0x22
 2579 0efc 99040000 		.4byte	.LASF277
 2580 0f00 02       		.byte	0x2
 2581 0f01 23       		.byte	0x23
 2582 0f02 CD0B0000 		.4byte	0xbcd
 2583 0f06 02       		.uleb128 0x2
 2584 0f07 91       		.byte	0x91
 2585 0f08 58       		.sleb128 -40
 2586 0f09 23       		.uleb128 0x23
 2587 0f0a A3070000 		.4byte	.LASF278
 2588 0f0e 02       		.byte	0x2
 2589 0f0f 25       		.byte	0x25
 2590 0f10 A2000000 		.4byte	0xa2
 2591 0f14 02       		.uleb128 0x2
 2592 0f15 91       		.byte	0x91
ARM GAS  C:\Users\stijn\AppData\Local\Temp\cc6b5yFd.s 			page 77


 2593 0f16 6F       		.sleb128 -17
 2594 0f17 24       		.uleb128 0x24
 2595 0f18 6D736700 		.ascii	"msg\000"
 2596 0f1c 02       		.byte	0x2
 2597 0f1d 26       		.byte	0x26
 2598 0f1e 4B030000 		.4byte	0x34b
 2599 0f22 02       		.uleb128 0x2
 2600 0f23 91       		.byte	0x91
 2601 0f24 6C       		.sleb128 -20
 2602 0f25 00       		.byte	0
 2603 0f26 21       		.uleb128 0x21
 2604 0f27 860F0000 		.4byte	.LASF280
 2605 0f2b 02       		.byte	0x2
 2606 0f2c 43       		.byte	0x43
 2607 0f2d A2000000 		.4byte	0xa2
 2608 0f31 00000000 		.4byte	.LFB1099
 2609 0f35 58000000 		.4byte	.LFE1099-.LFB1099
 2610 0f39 01       		.uleb128 0x1
 2611 0f3a 9C       		.byte	0x9c
 2612 0f3b 6A0F0000 		.4byte	0xf6a
 2613 0f3f 22       		.uleb128 0x22
 2614 0f40 99040000 		.4byte	.LASF277
 2615 0f44 02       		.byte	0x2
 2616 0f45 43       		.byte	0x43
 2617 0f46 CD0B0000 		.4byte	0xbcd
 2618 0f4a 02       		.uleb128 0x2
 2619 0f4b 91       		.byte	0x91
 2620 0f4c 58       		.sleb128 -40
 2621 0f4d 23       		.uleb128 0x23
 2622 0f4e A3070000 		.4byte	.LASF278
 2623 0f52 02       		.byte	0x2
 2624 0f53 45       		.byte	0x45
 2625 0f54 A2000000 		.4byte	0xa2
 2626 0f58 02       		.uleb128 0x2
 2627 0f59 91       		.byte	0x91
 2628 0f5a 6F       		.sleb128 -17
 2629 0f5b 24       		.uleb128 0x24
 2630 0f5c 6D736700 		.ascii	"msg\000"
 2631 0f60 02       		.byte	0x2
 2632 0f61 46       		.byte	0x46
 2633 0f62 4B030000 		.4byte	0x34b
 2634 0f66 02       		.uleb128 0x2
 2635 0f67 91       		.byte	0x91
 2636 0f68 6C       		.sleb128 -20
 2637 0f69 00       		.byte	0
 2638 0f6a 21       		.uleb128 0x21
 2639 0f6b 7D040000 		.4byte	.LASF281
 2640 0f6f 02       		.byte	0x2
 2641 0f70 59       		.byte	0x59
 2642 0f71 A2000000 		.4byte	0xa2
 2643 0f75 00000000 		.4byte	.LFB1100
 2644 0f79 58000000 		.4byte	.LFE1100-.LFB1100
 2645 0f7d 01       		.uleb128 0x1
 2646 0f7e 9C       		.byte	0x9c
 2647 0f7f AE0F0000 		.4byte	0xfae
 2648 0f83 22       		.uleb128 0x22
 2649 0f84 99040000 		.4byte	.LASF277
ARM GAS  C:\Users\stijn\AppData\Local\Temp\cc6b5yFd.s 			page 78


 2650 0f88 02       		.byte	0x2
 2651 0f89 59       		.byte	0x59
 2652 0f8a CD0B0000 		.4byte	0xbcd
 2653 0f8e 02       		.uleb128 0x2
 2654 0f8f 91       		.byte	0x91
 2655 0f90 58       		.sleb128 -40
 2656 0f91 23       		.uleb128 0x23
 2657 0f92 A3070000 		.4byte	.LASF278
 2658 0f96 02       		.byte	0x2
 2659 0f97 5B       		.byte	0x5b
 2660 0f98 A2000000 		.4byte	0xa2
 2661 0f9c 02       		.uleb128 0x2
 2662 0f9d 91       		.byte	0x91
 2663 0f9e 6F       		.sleb128 -17
 2664 0f9f 24       		.uleb128 0x24
 2665 0fa0 6D736700 		.ascii	"msg\000"
 2666 0fa4 02       		.byte	0x2
 2667 0fa5 5C       		.byte	0x5c
 2668 0fa6 4B030000 		.4byte	0x34b
 2669 0faa 02       		.uleb128 0x2
 2670 0fab 91       		.byte	0x91
 2671 0fac 6C       		.sleb128 -20
 2672 0fad 00       		.byte	0
 2673 0fae 21       		.uleb128 0x21
 2674 0faf AA070000 		.4byte	.LASF282
 2675 0fb3 02       		.byte	0x2
 2676 0fb4 6F       		.byte	0x6f
 2677 0fb5 A2000000 		.4byte	0xa2
 2678 0fb9 00000000 		.4byte	.LFB1101
 2679 0fbd 56000000 		.4byte	.LFE1101-.LFB1101
 2680 0fc1 01       		.uleb128 0x1
 2681 0fc2 9C       		.byte	0x9c
 2682 0fc3 F20F0000 		.4byte	0xff2
 2683 0fc7 22       		.uleb128 0x22
 2684 0fc8 99040000 		.4byte	.LASF277
 2685 0fcc 02       		.byte	0x2
 2686 0fcd 6F       		.byte	0x6f
 2687 0fce CD0B0000 		.4byte	0xbcd
 2688 0fd2 02       		.uleb128 0x2
 2689 0fd3 91       		.byte	0x91
 2690 0fd4 58       		.sleb128 -40
 2691 0fd5 23       		.uleb128 0x23
 2692 0fd6 A3070000 		.4byte	.LASF278
 2693 0fda 02       		.byte	0x2
 2694 0fdb 71       		.byte	0x71
 2695 0fdc A2000000 		.4byte	0xa2
 2696 0fe0 02       		.uleb128 0x2
 2697 0fe1 91       		.byte	0x91
 2698 0fe2 6F       		.sleb128 -17
 2699 0fe3 24       		.uleb128 0x24
 2700 0fe4 6D736700 		.ascii	"msg\000"
 2701 0fe8 02       		.byte	0x2
 2702 0fe9 72       		.byte	0x72
 2703 0fea 4B030000 		.4byte	0x34b
 2704 0fee 02       		.uleb128 0x2
 2705 0fef 91       		.byte	0x91
 2706 0ff0 6C       		.sleb128 -20
ARM GAS  C:\Users\stijn\AppData\Local\Temp\cc6b5yFd.s 			page 79


 2707 0ff1 00       		.byte	0
 2708 0ff2 21       		.uleb128 0x21
 2709 0ff3 62030000 		.4byte	.LASF283
 2710 0ff7 02       		.byte	0x2
 2711 0ff8 85       		.byte	0x85
 2712 0ff9 A2000000 		.4byte	0xa2
 2713 0ffd 00000000 		.4byte	.LFB1102
 2714 1001 56000000 		.4byte	.LFE1102-.LFB1102
 2715 1005 01       		.uleb128 0x1
 2716 1006 9C       		.byte	0x9c
 2717 1007 36100000 		.4byte	0x1036
 2718 100b 22       		.uleb128 0x22
 2719 100c 99040000 		.4byte	.LASF277
 2720 1010 02       		.byte	0x2
 2721 1011 85       		.byte	0x85
 2722 1012 CD0B0000 		.4byte	0xbcd
 2723 1016 02       		.uleb128 0x2
 2724 1017 91       		.byte	0x91
 2725 1018 58       		.sleb128 -40
 2726 1019 23       		.uleb128 0x23
 2727 101a A3070000 		.4byte	.LASF278
 2728 101e 02       		.byte	0x2
 2729 101f 87       		.byte	0x87
 2730 1020 A2000000 		.4byte	0xa2
 2731 1024 02       		.uleb128 0x2
 2732 1025 91       		.byte	0x91
 2733 1026 6F       		.sleb128 -17
 2734 1027 24       		.uleb128 0x24
 2735 1028 6D736700 		.ascii	"msg\000"
 2736 102c 02       		.byte	0x2
 2737 102d 88       		.byte	0x88
 2738 102e 4B030000 		.4byte	0x34b
 2739 1032 02       		.uleb128 0x2
 2740 1033 91       		.byte	0x91
 2741 1034 6C       		.sleb128 -20
 2742 1035 00       		.byte	0
 2743 1036 25       		.uleb128 0x25
 2744 1037 B80B0000 		.4byte	.LASF319
 2745 103b 02       		.byte	0x2
 2746 103c 9C       		.byte	0x9c
 2747 103d 00000000 		.4byte	.LFB1103
 2748 1041 A0000000 		.4byte	.LFE1103-.LFB1103
 2749 1045 01       		.uleb128 0x1
 2750 1046 9C       		.byte	0x9c
 2751 1047 B0100000 		.4byte	0x10b0
 2752 104b 22       		.uleb128 0x22
 2753 104c 8A040000 		.4byte	.LASF284
 2754 1050 02       		.byte	0x2
 2755 1051 9C       		.byte	0x9c
 2756 1052 CD080000 		.4byte	0x8cd
 2757 1056 02       		.uleb128 0x2
 2758 1057 91       		.byte	0x91
 2759 1058 54       		.sleb128 -44
 2760 1059 26       		.uleb128 0x26
 2761 105a FB0C0000 		.4byte	.LASF285
 2762 105e 02       		.byte	0x2
 2763 105f 9D       		.byte	0x9d
ARM GAS  C:\Users\stijn\AppData\Local\Temp\cc6b5yFd.s 			page 80


 2764 1060 B8000000 		.4byte	0xb8
 2765 1064 27       		.uleb128 0x27
 2766 1065 68756D00 		.ascii	"hum\000"
 2767 1069 02       		.byte	0x2
 2768 106a 9E       		.byte	0x9e
 2769 106b B8000000 		.4byte	0xb8
 2770 106f 26       		.uleb128 0x26
 2771 1070 83000000 		.4byte	.LASF286
 2772 1074 02       		.byte	0x2
 2773 1075 9F       		.byte	0x9f
 2774 1076 5B080000 		.4byte	0x85b
 2775 107a 26       		.uleb128 0x26
 2776 107b C8110000 		.4byte	.LASF287
 2777 107f 02       		.byte	0x2
 2778 1080 A0       		.byte	0xa0
 2779 1081 5B080000 		.4byte	0x85b
 2780 1085 23       		.uleb128 0x23
 2781 1086 99040000 		.4byte	.LASF277
 2782 108a 02       		.byte	0x2
 2783 108b A2       		.byte	0xa2
 2784 108c CD0B0000 		.4byte	0xbcd
 2785 1090 02       		.uleb128 0x2
 2786 1091 91       		.byte	0x91
 2787 1092 5C       		.sleb128 -36
 2788 1093 23       		.uleb128 0x23
 2789 1094 550D0000 		.4byte	.LASF288
 2790 1098 02       		.byte	0x2
 2791 1099 A6       		.byte	0xa6
 2792 109a 0C0E0000 		.4byte	0xe0c
 2793 109e 02       		.uleb128 0x2
 2794 109f 91       		.byte	0x91
 2795 10a0 58       		.sleb128 -40
 2796 10a1 23       		.uleb128 0x23
 2797 10a2 840B0000 		.4byte	.LASF289
 2798 10a6 02       		.byte	0x2
 2799 10a7 A7       		.byte	0xa7
 2800 10a8 B0100000 		.4byte	0x10b0
 2801 10ac 02       		.uleb128 0x2
 2802 10ad 91       		.byte	0x91
 2803 10ae 6C       		.sleb128 -20
 2804 10af 00       		.byte	0
 2805 10b0 06       		.uleb128 0x6
 2806 10b1 0C0E0000 		.4byte	0xe0c
 2807 10b5 23       		.uleb128 0x23
 2808 10b6 36040000 		.4byte	.LASF290
 2809 10ba 10       		.byte	0x10
 2810 10bb 28       		.byte	0x28
 2811 10bc AD000000 		.4byte	0xad
 2812 10c0 05       		.uleb128 0x5
 2813 10c1 03       		.byte	0x3
 2814 10c2 00000000 		.4byte	result
 2815 10c6 23       		.uleb128 0x23
 2816 10c7 2E030000 		.4byte	.LASF291
 2817 10cb 10       		.byte	0x10
 2818 10cc 29       		.byte	0x29
 2819 10cd A2000000 		.4byte	0xa2
 2820 10d1 05       		.uleb128 0x5
ARM GAS  C:\Users\stijn\AppData\Local\Temp\cc6b5yFd.s 			page 81


 2821 10d2 03       		.byte	0x3
 2822 10d3 02000000 		.4byte	dataReady
 2823 10d7 23       		.uleb128 0x23
 2824 10d8 AB060000 		.4byte	.LASF292
 2825 10dc 11       		.byte	0x11
 2826 10dd 2F       		.byte	0x2f
 2827 10de 94000000 		.4byte	0x94
 2828 10e2 05       		.uleb128 0x5
 2829 10e3 03       		.byte	0x3
 2830 10e4 04000000 		.4byte	sensor
 2831 10e8 23       		.uleb128 0x23
 2832 10e9 A1000000 		.4byte	.LASF293
 2833 10ed 11       		.byte	0x11
 2834 10ee 31       		.byte	0x31
 2835 10ef CF080000 		.4byte	0x8cf
 2836 10f3 05       		.uleb128 0x5
 2837 10f4 03       		.byte	0x3
 2838 10f5 08000000 		.4byte	sending
 2839 10f9 28       		.uleb128 0x28
 2840 10fa 950C0000 		.4byte	.LASF294
 2841 10fe 12       		.byte	0x12
 2842 10ff F907     		.2byte	0x7f9
 2843 1101 05110000 		.4byte	0x1105
 2844 1105 05       		.uleb128 0x5
 2845 1106 C3000000 		.4byte	0xc3
 2846 110a 29       		.uleb128 0x29
 2847 110b 3A000000 		.4byte	.LASF295
 2848 110f 08       		.byte	0x8
 2849 1110 A7       		.byte	0xa7
 2850 1111 15110000 		.4byte	0x1115
 2851 1115 17       		.uleb128 0x17
 2852 1116 04       		.byte	0x4
 2853 1117 1B110000 		.4byte	0x111b
 2854 111b 06       		.uleb128 0x6
 2855 111c 3D080000 		.4byte	0x83d
 2856 1120 29       		.uleb128 0x29
 2857 1121 8C100000 		.4byte	.LASF296
 2858 1125 13       		.byte	0x13
 2859 1126 87       		.byte	0x87
 2860 1127 A90C0000 		.4byte	0xca9
 2861 112b 28       		.uleb128 0x28
 2862 112c 58100000 		.4byte	.LASF297
 2863 1130 0E       		.byte	0xe
 2864 1131 6001     		.2byte	0x160
 2865 1133 CE000000 		.4byte	0xce
 2866 1137 07       		.uleb128 0x7
 2867 1138 47110000 		.4byte	0x1147
 2868 113c 47110000 		.4byte	0x1147
 2869 1140 08       		.uleb128 0x8
 2870 1141 D9000000 		.4byte	0xd9
 2871 1145 00       		.byte	0
 2872 1146 00       		.byte	0
 2873 1147 06       		.uleb128 0x6
 2874 1148 010E0000 		.4byte	0xe01
 2875 114c 28       		.uleb128 0x28
 2876 114d 440C0000 		.4byte	.LASF298
 2877 1151 0E       		.byte	0xe
ARM GAS  C:\Users\stijn\AppData\Local\Temp\cc6b5yFd.s 			page 82


 2878 1152 6401     		.2byte	0x164
 2879 1154 58110000 		.4byte	0x1158
 2880 1158 06       		.uleb128 0x6
 2881 1159 37110000 		.4byte	0x1137
 2882 115d 29       		.uleb128 0x29
 2883 115e 17070000 		.4byte	.LASF299
 2884 1162 14       		.byte	0x14
 2885 1163 7F       		.byte	0x7f
 2886 1164 7F0B0000 		.4byte	0xb7f
 2887 1168 29       		.uleb128 0x29
 2888 1169 E9040000 		.4byte	.LASF300
 2889 116d 15       		.byte	0x15
 2890 116e 1F       		.byte	0x1f
 2891 116f 73110000 		.4byte	0x1173
 2892 1173 06       		.uleb128 0x6
 2893 1174 A60D0000 		.4byte	0xda6
 2894 1178 29       		.uleb128 0x29
 2895 1179 B7010000 		.4byte	.LASF301
 2896 117d 16       		.byte	0x16
 2897 117e 1F       		.byte	0x1f
 2898 117f 73110000 		.4byte	0x1173
 2899 1183 29       		.uleb128 0x29
 2900 1184 990E0000 		.4byte	.LASF302
 2901 1188 17       		.byte	0x17
 2902 1189 1F       		.byte	0x1f
 2903 118a 73110000 		.4byte	0x1173
 2904 118e 29       		.uleb128 0x29
 2905 118f 64080000 		.4byte	.LASF303
 2906 1193 18       		.byte	0x18
 2907 1194 1F       		.byte	0x1f
 2908 1195 73110000 		.4byte	0x1173
 2909 1199 29       		.uleb128 0x29
 2910 119a 020F0000 		.4byte	.LASF304
 2911 119e 19       		.byte	0x19
 2912 119f 1F       		.byte	0x1f
 2913 11a0 73110000 		.4byte	0x1173
 2914 11a4 29       		.uleb128 0x29
 2915 11a5 23110000 		.4byte	.LASF305
 2916 11a9 1A       		.byte	0x1a
 2917 11aa 77       		.byte	0x77
 2918 11ab C1080000 		.4byte	0x8c1
 2919 11af 07       		.uleb128 0x7
 2920 11b0 CE000000 		.4byte	0xce
 2921 11b4 C0110000 		.4byte	0x11c0
 2922 11b8 10       		.uleb128 0x10
 2923 11b9 D9000000 		.4byte	0xd9
 2924 11bd 0004     		.2byte	0x400
 2925 11bf 00       		.byte	0
 2926 11c0 2A       		.uleb128 0x2a
 2927 11c1 62050000 		.4byte	.LASF306
 2928 11c5 10       		.byte	0x10
 2929 11c6 2B       		.byte	0x2b
 2930 11c7 AF110000 		.4byte	0x11af
 2931 11cb 05       		.uleb128 0x5
 2932 11cc 03       		.byte	0x3
 2933 11cd 00000000 		.4byte	bufferADC0
 2934 11d1 2A       		.uleb128 0x2a
ARM GAS  C:\Users\stijn\AppData\Local\Temp\cc6b5yFd.s 			page 83


 2935 11d2 6D050000 		.4byte	.LASF307
 2936 11d6 10       		.byte	0x10
 2937 11d7 2C       		.byte	0x2c
 2938 11d8 AF110000 		.4byte	0x11af
 2939 11dc 05       		.uleb128 0x5
 2940 11dd 03       		.byte	0x3
 2941 11de 00000000 		.4byte	bufferADC1
 2942 11e2 2A       		.uleb128 0x2a
 2943 11e3 84120000 		.4byte	.LASF308
 2944 11e7 10       		.byte	0x10
 2945 11e8 2D       		.byte	0x2d
 2946 11e9 AF110000 		.4byte	0x11af
 2947 11ed 05       		.uleb128 0x5
 2948 11ee 03       		.byte	0x3
 2949 11ef 00000000 		.4byte	bufferADC2
 2950 11f3 2A       		.uleb128 0x2a
 2951 11f4 8C050000 		.4byte	.LASF309
 2952 11f8 10       		.byte	0x10
 2953 11f9 2E       		.byte	0x2e
 2954 11fa AF110000 		.4byte	0x11af
 2955 11fe 05       		.uleb128 0x5
 2956 11ff 03       		.byte	0x3
 2957 1200 00000000 		.4byte	bufferADC3
 2958 1204 2A       		.uleb128 0x2a
 2959 1205 B2060000 		.4byte	.LASF310
 2960 1209 1B       		.byte	0x1b
 2961 120a 32       		.byte	0x32
 2962 120b 4B030000 		.4byte	0x34b
 2963 120f 05       		.uleb128 0x5
 2964 1210 03       		.byte	0x3
 2965 1211 00000000 		.4byte	writebuffer
 2966 1215 07       		.uleb128 0x7
 2967 1216 A2000000 		.4byte	0xa2
 2968 121a 25120000 		.4byte	0x1225
 2969 121e 08       		.uleb128 0x8
 2970 121f D9000000 		.4byte	0xd9
 2971 1223 05       		.byte	0x5
 2972 1224 00       		.byte	0
 2973 1225 2A       		.uleb128 0x2a
 2974 1226 77070000 		.4byte	.LASF311
 2975 122a 1B       		.byte	0x1b
 2976 122b 33       		.byte	0x33
 2977 122c 15120000 		.4byte	0x1215
 2978 1230 05       		.uleb128 0x5
 2979 1231 03       		.byte	0x3
 2980 1232 00000000 		.4byte	readBuffer
 2981 1236 07       		.uleb128 0x7
 2982 1237 A2000000 		.4byte	0xa2
 2983 123b 47120000 		.4byte	0x1247
 2984 123f 10       		.uleb128 0x10
 2985 1240 D9000000 		.4byte	0xd9
 2986 1244 0118     		.2byte	0x1801
 2987 1246 00       		.byte	0
 2988 1247 2A       		.uleb128 0x2a
 2989 1248 3A010000 		.4byte	.LASF312
 2990 124c 1B       		.byte	0x1b
 2991 124d 35       		.byte	0x35
ARM GAS  C:\Users\stijn\AppData\Local\Temp\cc6b5yFd.s 			page 84


 2992 124e 36120000 		.4byte	0x1236
 2993 1252 05       		.uleb128 0x5
 2994 1253 03       		.byte	0x3
 2995 1254 00000000 		.4byte	bufferAccelero
 2996 1258 2A       		.uleb128 0x2a
 2997 1259 23030000 		.4byte	.LASF313
 2998 125d 1B       		.byte	0x1b
 2999 125e 36       		.byte	0x36
 3000 125f 5B030000 		.4byte	0x35b
 3001 1263 05       		.uleb128 0x5
 3002 1264 03       		.byte	0x3
 3003 1265 00000000 		.4byte	bufferTemp
 3004 1269 2A       		.uleb128 0x2a
 3005 126a D10F0000 		.4byte	.LASF314
 3006 126e 1B       		.byte	0x1b
 3007 126f 37       		.byte	0x37
 3008 1270 5B030000 		.4byte	0x35b
 3009 1274 05       		.uleb128 0x5
 3010 1275 03       		.byte	0x3
 3011 1276 00000000 		.4byte	bufferHumid
 3012 127a 00       		.byte	0
 3013              		.section	.debug_abbrev,"",%progbits
 3014              	.Ldebug_abbrev0:
 3015 0000 01       		.uleb128 0x1
 3016 0001 11       		.uleb128 0x11
 3017 0002 01       		.byte	0x1
 3018 0003 25       		.uleb128 0x25
 3019 0004 0E       		.uleb128 0xe
 3020 0005 13       		.uleb128 0x13
 3021 0006 0B       		.uleb128 0xb
 3022 0007 03       		.uleb128 0x3
 3023 0008 0E       		.uleb128 0xe
 3024 0009 1B       		.uleb128 0x1b
 3025 000a 0E       		.uleb128 0xe
 3026 000b 55       		.uleb128 0x55
 3027 000c 17       		.uleb128 0x17
 3028 000d 11       		.uleb128 0x11
 3029 000e 01       		.uleb128 0x1
 3030 000f 10       		.uleb128 0x10
 3031 0010 17       		.uleb128 0x17
 3032 0011 00       		.byte	0
 3033 0012 00       		.byte	0
 3034 0013 02       		.uleb128 0x2
 3035 0014 24       		.uleb128 0x24
 3036 0015 00       		.byte	0
 3037 0016 0B       		.uleb128 0xb
 3038 0017 0B       		.uleb128 0xb
 3039 0018 3E       		.uleb128 0x3e
 3040 0019 0B       		.uleb128 0xb
 3041 001a 03       		.uleb128 0x3
 3042 001b 0E       		.uleb128 0xe
 3043 001c 00       		.byte	0
 3044 001d 00       		.byte	0
 3045 001e 03       		.uleb128 0x3
 3046 001f 16       		.uleb128 0x16
 3047 0020 00       		.byte	0
 3048 0021 03       		.uleb128 0x3
ARM GAS  C:\Users\stijn\AppData\Local\Temp\cc6b5yFd.s 			page 85


 3049 0022 0E       		.uleb128 0xe
 3050 0023 3A       		.uleb128 0x3a
 3051 0024 0B       		.uleb128 0xb
 3052 0025 3B       		.uleb128 0x3b
 3053 0026 0B       		.uleb128 0xb
 3054 0027 49       		.uleb128 0x49
 3055 0028 13       		.uleb128 0x13
 3056 0029 00       		.byte	0
 3057 002a 00       		.byte	0
 3058 002b 04       		.uleb128 0x4
 3059 002c 24       		.uleb128 0x24
 3060 002d 00       		.byte	0
 3061 002e 0B       		.uleb128 0xb
 3062 002f 0B       		.uleb128 0xb
 3063 0030 3E       		.uleb128 0x3e
 3064 0031 0B       		.uleb128 0xb
 3065 0032 03       		.uleb128 0x3
 3066 0033 08       		.uleb128 0x8
 3067 0034 00       		.byte	0
 3068 0035 00       		.byte	0
 3069 0036 05       		.uleb128 0x5
 3070 0037 35       		.uleb128 0x35
 3071 0038 00       		.byte	0
 3072 0039 49       		.uleb128 0x49
 3073 003a 13       		.uleb128 0x13
 3074 003b 00       		.byte	0
 3075 003c 00       		.byte	0
 3076 003d 06       		.uleb128 0x6
 3077 003e 26       		.uleb128 0x26
 3078 003f 00       		.byte	0
 3079 0040 49       		.uleb128 0x49
 3080 0041 13       		.uleb128 0x13
 3081 0042 00       		.byte	0
 3082 0043 00       		.byte	0
 3083 0044 07       		.uleb128 0x7
 3084 0045 01       		.uleb128 0x1
 3085 0046 01       		.byte	0x1
 3086 0047 49       		.uleb128 0x49
 3087 0048 13       		.uleb128 0x13
 3088 0049 01       		.uleb128 0x1
 3089 004a 13       		.uleb128 0x13
 3090 004b 00       		.byte	0
 3091 004c 00       		.byte	0
 3092 004d 08       		.uleb128 0x8
 3093 004e 21       		.uleb128 0x21
 3094 004f 00       		.byte	0
 3095 0050 49       		.uleb128 0x49
 3096 0051 13       		.uleb128 0x13
 3097 0052 2F       		.uleb128 0x2f
 3098 0053 0B       		.uleb128 0xb
 3099 0054 00       		.byte	0
 3100 0055 00       		.byte	0
 3101 0056 09       		.uleb128 0x9
 3102 0057 04       		.uleb128 0x4
 3103 0058 01       		.byte	0x1
 3104 0059 0B       		.uleb128 0xb
 3105 005a 0B       		.uleb128 0xb
ARM GAS  C:\Users\stijn\AppData\Local\Temp\cc6b5yFd.s 			page 86


 3106 005b 49       		.uleb128 0x49
 3107 005c 13       		.uleb128 0x13
 3108 005d 3A       		.uleb128 0x3a
 3109 005e 0B       		.uleb128 0xb
 3110 005f 3B       		.uleb128 0x3b
 3111 0060 05       		.uleb128 0x5
 3112 0061 01       		.uleb128 0x1
 3113 0062 13       		.uleb128 0x13
 3114 0063 00       		.byte	0
 3115 0064 00       		.byte	0
 3116 0065 0A       		.uleb128 0xa
 3117 0066 28       		.uleb128 0x28
 3118 0067 00       		.byte	0
 3119 0068 03       		.uleb128 0x3
 3120 0069 0E       		.uleb128 0xe
 3121 006a 1C       		.uleb128 0x1c
 3122 006b 06       		.uleb128 0x6
 3123 006c 00       		.byte	0
 3124 006d 00       		.byte	0
 3125 006e 0B       		.uleb128 0xb
 3126 006f 13       		.uleb128 0x13
 3127 0070 01       		.byte	0x1
 3128 0071 0B       		.uleb128 0xb
 3129 0072 0B       		.uleb128 0xb
 3130 0073 3A       		.uleb128 0x3a
 3131 0074 0B       		.uleb128 0xb
 3132 0075 3B       		.uleb128 0x3b
 3133 0076 0B       		.uleb128 0xb
 3134 0077 01       		.uleb128 0x1
 3135 0078 13       		.uleb128 0x13
 3136 0079 00       		.byte	0
 3137 007a 00       		.byte	0
 3138 007b 0C       		.uleb128 0xc
 3139 007c 0D       		.uleb128 0xd
 3140 007d 00       		.byte	0
 3141 007e 03       		.uleb128 0x3
 3142 007f 0E       		.uleb128 0xe
 3143 0080 3A       		.uleb128 0x3a
 3144 0081 0B       		.uleb128 0xb
 3145 0082 3B       		.uleb128 0x3b
 3146 0083 0B       		.uleb128 0xb
 3147 0084 49       		.uleb128 0x49
 3148 0085 13       		.uleb128 0x13
 3149 0086 38       		.uleb128 0x38
 3150 0087 0B       		.uleb128 0xb
 3151 0088 00       		.byte	0
 3152 0089 00       		.byte	0
 3153 008a 0D       		.uleb128 0xd
 3154 008b 13       		.uleb128 0x13
 3155 008c 01       		.byte	0x1
 3156 008d 0B       		.uleb128 0xb
 3157 008e 05       		.uleb128 0x5
 3158 008f 3A       		.uleb128 0x3a
 3159 0090 0B       		.uleb128 0xb
 3160 0091 3B       		.uleb128 0x3b
 3161 0092 0B       		.uleb128 0xb
 3162 0093 01       		.uleb128 0x1
ARM GAS  C:\Users\stijn\AppData\Local\Temp\cc6b5yFd.s 			page 87


 3163 0094 13       		.uleb128 0x13
 3164 0095 00       		.byte	0
 3165 0096 00       		.byte	0
 3166 0097 0E       		.uleb128 0xe
 3167 0098 0D       		.uleb128 0xd
 3168 0099 00       		.byte	0
 3169 009a 03       		.uleb128 0x3
 3170 009b 08       		.uleb128 0x8
 3171 009c 3A       		.uleb128 0x3a
 3172 009d 0B       		.uleb128 0xb
 3173 009e 3B       		.uleb128 0x3b
 3174 009f 0B       		.uleb128 0xb
 3175 00a0 49       		.uleb128 0x49
 3176 00a1 13       		.uleb128 0x13
 3177 00a2 38       		.uleb128 0x38
 3178 00a3 0B       		.uleb128 0xb
 3179 00a4 00       		.byte	0
 3180 00a5 00       		.byte	0
 3181 00a6 0F       		.uleb128 0xf
 3182 00a7 0D       		.uleb128 0xd
 3183 00a8 00       		.byte	0
 3184 00a9 03       		.uleb128 0x3
 3185 00aa 0E       		.uleb128 0xe
 3186 00ab 3A       		.uleb128 0x3a
 3187 00ac 0B       		.uleb128 0xb
 3188 00ad 3B       		.uleb128 0x3b
 3189 00ae 0B       		.uleb128 0xb
 3190 00af 49       		.uleb128 0x49
 3191 00b0 13       		.uleb128 0x13
 3192 00b1 38       		.uleb128 0x38
 3193 00b2 05       		.uleb128 0x5
 3194 00b3 00       		.byte	0
 3195 00b4 00       		.byte	0
 3196 00b5 10       		.uleb128 0x10
 3197 00b6 21       		.uleb128 0x21
 3198 00b7 00       		.byte	0
 3199 00b8 49       		.uleb128 0x49
 3200 00b9 13       		.uleb128 0x13
 3201 00ba 2F       		.uleb128 0x2f
 3202 00bb 05       		.uleb128 0x5
 3203 00bc 00       		.byte	0
 3204 00bd 00       		.byte	0
 3205 00be 11       		.uleb128 0x11
 3206 00bf 16       		.uleb128 0x16
 3207 00c0 00       		.byte	0
 3208 00c1 03       		.uleb128 0x3
 3209 00c2 0E       		.uleb128 0xe
 3210 00c3 3A       		.uleb128 0x3a
 3211 00c4 0B       		.uleb128 0xb
 3212 00c5 3B       		.uleb128 0x3b
 3213 00c6 05       		.uleb128 0x5
 3214 00c7 49       		.uleb128 0x49
 3215 00c8 13       		.uleb128 0x13
 3216 00c9 00       		.byte	0
 3217 00ca 00       		.byte	0
 3218 00cb 12       		.uleb128 0x12
 3219 00cc 13       		.uleb128 0x13
ARM GAS  C:\Users\stijn\AppData\Local\Temp\cc6b5yFd.s 			page 88


 3220 00cd 01       		.byte	0x1
 3221 00ce 0B       		.uleb128 0xb
 3222 00cf 0B       		.uleb128 0xb
 3223 00d0 3A       		.uleb128 0x3a
 3224 00d1 0B       		.uleb128 0xb
 3225 00d2 3B       		.uleb128 0x3b
 3226 00d3 05       		.uleb128 0x5
 3227 00d4 01       		.uleb128 0x1
 3228 00d5 13       		.uleb128 0x13
 3229 00d6 00       		.byte	0
 3230 00d7 00       		.byte	0
 3231 00d8 13       		.uleb128 0x13
 3232 00d9 0D       		.uleb128 0xd
 3233 00da 00       		.byte	0
 3234 00db 03       		.uleb128 0x3
 3235 00dc 08       		.uleb128 0x8
 3236 00dd 3A       		.uleb128 0x3a
 3237 00de 0B       		.uleb128 0xb
 3238 00df 3B       		.uleb128 0x3b
 3239 00e0 05       		.uleb128 0x5
 3240 00e1 49       		.uleb128 0x49
 3241 00e2 13       		.uleb128 0x13
 3242 00e3 38       		.uleb128 0x38
 3243 00e4 0B       		.uleb128 0xb
 3244 00e5 00       		.byte	0
 3245 00e6 00       		.byte	0
 3246 00e7 14       		.uleb128 0x14
 3247 00e8 0D       		.uleb128 0xd
 3248 00e9 00       		.byte	0
 3249 00ea 03       		.uleb128 0x3
 3250 00eb 0E       		.uleb128 0xe
 3251 00ec 3A       		.uleb128 0x3a
 3252 00ed 0B       		.uleb128 0xb
 3253 00ee 3B       		.uleb128 0x3b
 3254 00ef 05       		.uleb128 0x5
 3255 00f0 49       		.uleb128 0x49
 3256 00f1 13       		.uleb128 0x13
 3257 00f2 38       		.uleb128 0x38
 3258 00f3 0B       		.uleb128 0xb
 3259 00f4 00       		.byte	0
 3260 00f5 00       		.byte	0
 3261 00f6 15       		.uleb128 0x15
 3262 00f7 0F       		.uleb128 0xf
 3263 00f8 00       		.byte	0
 3264 00f9 0B       		.uleb128 0xb
 3265 00fa 0B       		.uleb128 0xb
 3266 00fb 00       		.byte	0
 3267 00fc 00       		.byte	0
 3268 00fd 16       		.uleb128 0x16
 3269 00fe 28       		.uleb128 0x28
 3270 00ff 00       		.byte	0
 3271 0100 03       		.uleb128 0x3
 3272 0101 0E       		.uleb128 0xe
 3273 0102 1C       		.uleb128 0x1c
 3274 0103 0B       		.uleb128 0xb
 3275 0104 00       		.byte	0
 3276 0105 00       		.byte	0
ARM GAS  C:\Users\stijn\AppData\Local\Temp\cc6b5yFd.s 			page 89


 3277 0106 17       		.uleb128 0x17
 3278 0107 0F       		.uleb128 0xf
 3279 0108 00       		.byte	0
 3280 0109 0B       		.uleb128 0xb
 3281 010a 0B       		.uleb128 0xb
 3282 010b 49       		.uleb128 0x49
 3283 010c 13       		.uleb128 0x13
 3284 010d 00       		.byte	0
 3285 010e 00       		.byte	0
 3286 010f 18       		.uleb128 0x18
 3287 0110 15       		.uleb128 0x15
 3288 0111 01       		.byte	0x1
 3289 0112 27       		.uleb128 0x27
 3290 0113 19       		.uleb128 0x19
 3291 0114 01       		.uleb128 0x1
 3292 0115 13       		.uleb128 0x13
 3293 0116 00       		.byte	0
 3294 0117 00       		.byte	0
 3295 0118 19       		.uleb128 0x19
 3296 0119 05       		.uleb128 0x5
 3297 011a 00       		.byte	0
 3298 011b 49       		.uleb128 0x49
 3299 011c 13       		.uleb128 0x13
 3300 011d 00       		.byte	0
 3301 011e 00       		.byte	0
 3302 011f 1A       		.uleb128 0x1a
 3303 0120 15       		.uleb128 0x15
 3304 0121 01       		.byte	0x1
 3305 0122 27       		.uleb128 0x27
 3306 0123 19       		.uleb128 0x19
 3307 0124 49       		.uleb128 0x49
 3308 0125 13       		.uleb128 0x13
 3309 0126 01       		.uleb128 0x1
 3310 0127 13       		.uleb128 0x13
 3311 0128 00       		.byte	0
 3312 0129 00       		.byte	0
 3313 012a 1B       		.uleb128 0x1b
 3314 012b 13       		.uleb128 0x13
 3315 012c 01       		.byte	0x1
 3316 012d 03       		.uleb128 0x3
 3317 012e 0E       		.uleb128 0xe
 3318 012f 0B       		.uleb128 0xb
 3319 0130 0B       		.uleb128 0xb
 3320 0131 3A       		.uleb128 0x3a
 3321 0132 0B       		.uleb128 0xb
 3322 0133 3B       		.uleb128 0x3b
 3323 0134 05       		.uleb128 0x5
 3324 0135 01       		.uleb128 0x1
 3325 0136 13       		.uleb128 0x13
 3326 0137 00       		.byte	0
 3327 0138 00       		.byte	0
 3328 0139 1C       		.uleb128 0x1c
 3329 013a 13       		.uleb128 0x13
 3330 013b 01       		.byte	0x1
 3331 013c 03       		.uleb128 0x3
 3332 013d 0E       		.uleb128 0xe
 3333 013e 0B       		.uleb128 0xb
ARM GAS  C:\Users\stijn\AppData\Local\Temp\cc6b5yFd.s 			page 90


 3334 013f 0B       		.uleb128 0xb
 3335 0140 3A       		.uleb128 0x3a
 3336 0141 0B       		.uleb128 0xb
 3337 0142 3B       		.uleb128 0x3b
 3338 0143 0B       		.uleb128 0xb
 3339 0144 01       		.uleb128 0x1
 3340 0145 13       		.uleb128 0x13
 3341 0146 00       		.byte	0
 3342 0147 00       		.byte	0
 3343 0148 1D       		.uleb128 0x1d
 3344 0149 04       		.uleb128 0x4
 3345 014a 01       		.byte	0x1
 3346 014b 03       		.uleb128 0x3
 3347 014c 0E       		.uleb128 0xe
 3348 014d 0B       		.uleb128 0xb
 3349 014e 0B       		.uleb128 0xb
 3350 014f 49       		.uleb128 0x49
 3351 0150 13       		.uleb128 0x13
 3352 0151 3A       		.uleb128 0x3a
 3353 0152 0B       		.uleb128 0xb
 3354 0153 3B       		.uleb128 0x3b
 3355 0154 0B       		.uleb128 0xb
 3356 0155 01       		.uleb128 0x1
 3357 0156 13       		.uleb128 0x13
 3358 0157 00       		.byte	0
 3359 0158 00       		.byte	0
 3360 0159 1E       		.uleb128 0x1e
 3361 015a 28       		.uleb128 0x28
 3362 015b 00       		.byte	0
 3363 015c 03       		.uleb128 0x3
 3364 015d 08       		.uleb128 0x8
 3365 015e 1C       		.uleb128 0x1c
 3366 015f 0B       		.uleb128 0xb
 3367 0160 00       		.byte	0
 3368 0161 00       		.byte	0
 3369 0162 1F       		.uleb128 0x1f
 3370 0163 2E       		.uleb128 0x2e
 3371 0164 01       		.byte	0x1
 3372 0165 03       		.uleb128 0x3
 3373 0166 0E       		.uleb128 0xe
 3374 0167 3A       		.uleb128 0x3a
 3375 0168 0B       		.uleb128 0xb
 3376 0169 3B       		.uleb128 0x3b
 3377 016a 05       		.uleb128 0x5
 3378 016b 27       		.uleb128 0x27
 3379 016c 19       		.uleb128 0x19
 3380 016d 11       		.uleb128 0x11
 3381 016e 01       		.uleb128 0x1
 3382 016f 12       		.uleb128 0x12
 3383 0170 06       		.uleb128 0x6
 3384 0171 40       		.uleb128 0x40
 3385 0172 18       		.uleb128 0x18
 3386 0173 9642     		.uleb128 0x2116
 3387 0175 19       		.uleb128 0x19
 3388 0176 01       		.uleb128 0x1
 3389 0177 13       		.uleb128 0x13
 3390 0178 00       		.byte	0
ARM GAS  C:\Users\stijn\AppData\Local\Temp\cc6b5yFd.s 			page 91


 3391 0179 00       		.byte	0
 3392 017a 20       		.uleb128 0x20
 3393 017b 05       		.uleb128 0x5
 3394 017c 00       		.byte	0
 3395 017d 03       		.uleb128 0x3
 3396 017e 0E       		.uleb128 0xe
 3397 017f 3A       		.uleb128 0x3a
 3398 0180 0B       		.uleb128 0xb
 3399 0181 3B       		.uleb128 0x3b
 3400 0182 05       		.uleb128 0x5
 3401 0183 49       		.uleb128 0x49
 3402 0184 13       		.uleb128 0x13
 3403 0185 02       		.uleb128 0x2
 3404 0186 18       		.uleb128 0x18
 3405 0187 00       		.byte	0
 3406 0188 00       		.byte	0
 3407 0189 21       		.uleb128 0x21
 3408 018a 2E       		.uleb128 0x2e
 3409 018b 01       		.byte	0x1
 3410 018c 3F       		.uleb128 0x3f
 3411 018d 19       		.uleb128 0x19
 3412 018e 03       		.uleb128 0x3
 3413 018f 0E       		.uleb128 0xe
 3414 0190 3A       		.uleb128 0x3a
 3415 0191 0B       		.uleb128 0xb
 3416 0192 3B       		.uleb128 0x3b
 3417 0193 0B       		.uleb128 0xb
 3418 0194 27       		.uleb128 0x27
 3419 0195 19       		.uleb128 0x19
 3420 0196 49       		.uleb128 0x49
 3421 0197 13       		.uleb128 0x13
 3422 0198 11       		.uleb128 0x11
 3423 0199 01       		.uleb128 0x1
 3424 019a 12       		.uleb128 0x12
 3425 019b 06       		.uleb128 0x6
 3426 019c 40       		.uleb128 0x40
 3427 019d 18       		.uleb128 0x18
 3428 019e 9642     		.uleb128 0x2116
 3429 01a0 19       		.uleb128 0x19
 3430 01a1 01       		.uleb128 0x1
 3431 01a2 13       		.uleb128 0x13
 3432 01a3 00       		.byte	0
 3433 01a4 00       		.byte	0
 3434 01a5 22       		.uleb128 0x22
 3435 01a6 05       		.uleb128 0x5
 3436 01a7 00       		.byte	0
 3437 01a8 03       		.uleb128 0x3
 3438 01a9 0E       		.uleb128 0xe
 3439 01aa 3A       		.uleb128 0x3a
 3440 01ab 0B       		.uleb128 0xb
 3441 01ac 3B       		.uleb128 0x3b
 3442 01ad 0B       		.uleb128 0xb
 3443 01ae 49       		.uleb128 0x49
 3444 01af 13       		.uleb128 0x13
 3445 01b0 02       		.uleb128 0x2
 3446 01b1 18       		.uleb128 0x18
 3447 01b2 00       		.byte	0
ARM GAS  C:\Users\stijn\AppData\Local\Temp\cc6b5yFd.s 			page 92


 3448 01b3 00       		.byte	0
 3449 01b4 23       		.uleb128 0x23
 3450 01b5 34       		.uleb128 0x34
 3451 01b6 00       		.byte	0
 3452 01b7 03       		.uleb128 0x3
 3453 01b8 0E       		.uleb128 0xe
 3454 01b9 3A       		.uleb128 0x3a
 3455 01ba 0B       		.uleb128 0xb
 3456 01bb 3B       		.uleb128 0x3b
 3457 01bc 0B       		.uleb128 0xb
 3458 01bd 49       		.uleb128 0x49
 3459 01be 13       		.uleb128 0x13
 3460 01bf 02       		.uleb128 0x2
 3461 01c0 18       		.uleb128 0x18
 3462 01c1 00       		.byte	0
 3463 01c2 00       		.byte	0
 3464 01c3 24       		.uleb128 0x24
 3465 01c4 34       		.uleb128 0x34
 3466 01c5 00       		.byte	0
 3467 01c6 03       		.uleb128 0x3
 3468 01c7 08       		.uleb128 0x8
 3469 01c8 3A       		.uleb128 0x3a
 3470 01c9 0B       		.uleb128 0xb
 3471 01ca 3B       		.uleb128 0x3b
 3472 01cb 0B       		.uleb128 0xb
 3473 01cc 49       		.uleb128 0x49
 3474 01cd 13       		.uleb128 0x13
 3475 01ce 02       		.uleb128 0x2
 3476 01cf 18       		.uleb128 0x18
 3477 01d0 00       		.byte	0
 3478 01d1 00       		.byte	0
 3479 01d2 25       		.uleb128 0x25
 3480 01d3 2E       		.uleb128 0x2e
 3481 01d4 01       		.byte	0x1
 3482 01d5 3F       		.uleb128 0x3f
 3483 01d6 19       		.uleb128 0x19
 3484 01d7 03       		.uleb128 0x3
 3485 01d8 0E       		.uleb128 0xe
 3486 01d9 3A       		.uleb128 0x3a
 3487 01da 0B       		.uleb128 0xb
 3488 01db 3B       		.uleb128 0x3b
 3489 01dc 0B       		.uleb128 0xb
 3490 01dd 27       		.uleb128 0x27
 3491 01de 19       		.uleb128 0x19
 3492 01df 11       		.uleb128 0x11
 3493 01e0 01       		.uleb128 0x1
 3494 01e1 12       		.uleb128 0x12
 3495 01e2 06       		.uleb128 0x6
 3496 01e3 40       		.uleb128 0x40
 3497 01e4 18       		.uleb128 0x18
 3498 01e5 9642     		.uleb128 0x2116
 3499 01e7 19       		.uleb128 0x19
 3500 01e8 01       		.uleb128 0x1
 3501 01e9 13       		.uleb128 0x13
 3502 01ea 00       		.byte	0
 3503 01eb 00       		.byte	0
 3504 01ec 26       		.uleb128 0x26
ARM GAS  C:\Users\stijn\AppData\Local\Temp\cc6b5yFd.s 			page 93


 3505 01ed 34       		.uleb128 0x34
 3506 01ee 00       		.byte	0
 3507 01ef 03       		.uleb128 0x3
 3508 01f0 0E       		.uleb128 0xe
 3509 01f1 3A       		.uleb128 0x3a
 3510 01f2 0B       		.uleb128 0xb
 3511 01f3 3B       		.uleb128 0x3b
 3512 01f4 0B       		.uleb128 0xb
 3513 01f5 49       		.uleb128 0x49
 3514 01f6 13       		.uleb128 0x13
 3515 01f7 00       		.byte	0
 3516 01f8 00       		.byte	0
 3517 01f9 27       		.uleb128 0x27
 3518 01fa 34       		.uleb128 0x34
 3519 01fb 00       		.byte	0
 3520 01fc 03       		.uleb128 0x3
 3521 01fd 08       		.uleb128 0x8
 3522 01fe 3A       		.uleb128 0x3a
 3523 01ff 0B       		.uleb128 0xb
 3524 0200 3B       		.uleb128 0x3b
 3525 0201 0B       		.uleb128 0xb
 3526 0202 49       		.uleb128 0x49
 3527 0203 13       		.uleb128 0x13
 3528 0204 00       		.byte	0
 3529 0205 00       		.byte	0
 3530 0206 28       		.uleb128 0x28
 3531 0207 34       		.uleb128 0x34
 3532 0208 00       		.byte	0
 3533 0209 03       		.uleb128 0x3
 3534 020a 0E       		.uleb128 0xe
 3535 020b 3A       		.uleb128 0x3a
 3536 020c 0B       		.uleb128 0xb
 3537 020d 3B       		.uleb128 0x3b
 3538 020e 05       		.uleb128 0x5
 3539 020f 49       		.uleb128 0x49
 3540 0210 13       		.uleb128 0x13
 3541 0211 3F       		.uleb128 0x3f
 3542 0212 19       		.uleb128 0x19
 3543 0213 3C       		.uleb128 0x3c
 3544 0214 19       		.uleb128 0x19
 3545 0215 00       		.byte	0
 3546 0216 00       		.byte	0
 3547 0217 29       		.uleb128 0x29
 3548 0218 34       		.uleb128 0x34
 3549 0219 00       		.byte	0
 3550 021a 03       		.uleb128 0x3
 3551 021b 0E       		.uleb128 0xe
 3552 021c 3A       		.uleb128 0x3a
 3553 021d 0B       		.uleb128 0xb
 3554 021e 3B       		.uleb128 0x3b
 3555 021f 0B       		.uleb128 0xb
 3556 0220 49       		.uleb128 0x49
 3557 0221 13       		.uleb128 0x13
 3558 0222 3F       		.uleb128 0x3f
 3559 0223 19       		.uleb128 0x19
 3560 0224 3C       		.uleb128 0x3c
 3561 0225 19       		.uleb128 0x19
ARM GAS  C:\Users\stijn\AppData\Local\Temp\cc6b5yFd.s 			page 94


 3562 0226 00       		.byte	0
 3563 0227 00       		.byte	0
 3564 0228 2A       		.uleb128 0x2a
 3565 0229 34       		.uleb128 0x34
 3566 022a 00       		.byte	0
 3567 022b 03       		.uleb128 0x3
 3568 022c 0E       		.uleb128 0xe
 3569 022d 3A       		.uleb128 0x3a
 3570 022e 0B       		.uleb128 0xb
 3571 022f 3B       		.uleb128 0x3b
 3572 0230 0B       		.uleb128 0xb
 3573 0231 49       		.uleb128 0x49
 3574 0232 13       		.uleb128 0x13
 3575 0233 3F       		.uleb128 0x3f
 3576 0234 19       		.uleb128 0x19
 3577 0235 02       		.uleb128 0x2
 3578 0236 18       		.uleb128 0x18
 3579 0237 00       		.byte	0
 3580 0238 00       		.byte	0
 3581 0239 00       		.byte	0
 3582              		.section	.debug_aranges,"",%progbits
 3583 0000 54000000 		.4byte	0x54
 3584 0004 0200     		.2byte	0x2
 3585 0006 00000000 		.4byte	.Ldebug_info0
 3586 000a 04       		.byte	0x4
 3587 000b 00       		.byte	0
 3588 000c 0000     		.2byte	0
 3589 000e 0000     		.2byte	0
 3590 0010 00000000 		.4byte	.LFB170
 3591 0014 A8000000 		.4byte	.LFE170-.LFB170
 3592 0018 00000000 		.4byte	.LFB171
 3593 001c 80000000 		.4byte	.LFE171-.LFB171
 3594 0020 00000000 		.4byte	.LFB1098
 3595 0024 82000000 		.4byte	.LFE1098-.LFB1098
 3596 0028 00000000 		.4byte	.LFB1099
 3597 002c 58000000 		.4byte	.LFE1099-.LFB1099
 3598 0030 00000000 		.4byte	.LFB1100
 3599 0034 58000000 		.4byte	.LFE1100-.LFB1100
 3600 0038 00000000 		.4byte	.LFB1101
 3601 003c 56000000 		.4byte	.LFE1101-.LFB1101
 3602 0040 00000000 		.4byte	.LFB1102
 3603 0044 56000000 		.4byte	.LFE1102-.LFB1102
 3604 0048 00000000 		.4byte	.LFB1103
 3605 004c A0000000 		.4byte	.LFE1103-.LFB1103
 3606 0050 00000000 		.4byte	0
 3607 0054 00000000 		.4byte	0
 3608              		.section	.debug_ranges,"",%progbits
 3609              	.Ldebug_ranges0:
 3610 0000 00000000 		.4byte	.LFB170
 3611 0004 A8000000 		.4byte	.LFE170
 3612 0008 00000000 		.4byte	.LFB171
 3613 000c 80000000 		.4byte	.LFE171
 3614 0010 00000000 		.4byte	.LFB1098
 3615 0014 82000000 		.4byte	.LFE1098
 3616 0018 00000000 		.4byte	.LFB1099
 3617 001c 58000000 		.4byte	.LFE1099
 3618 0020 00000000 		.4byte	.LFB1100
ARM GAS  C:\Users\stijn\AppData\Local\Temp\cc6b5yFd.s 			page 95


 3619 0024 58000000 		.4byte	.LFE1100
 3620 0028 00000000 		.4byte	.LFB1101
 3621 002c 56000000 		.4byte	.LFE1101
 3622 0030 00000000 		.4byte	.LFB1102
 3623 0034 56000000 		.4byte	.LFE1102
 3624 0038 00000000 		.4byte	.LFB1103
 3625 003c A0000000 		.4byte	.LFE1103
 3626 0040 00000000 		.4byte	0
 3627 0044 00000000 		.4byte	0
 3628              		.section	.debug_line,"",%progbits
 3629              	.Ldebug_line0:
 3630 0000 5F050000 		.section	.debug_str,"MS",%progbits,1
 3630      02007704 
 3630      00000201 
 3630      FB0E0D00 
 3630      01010101 
 3631              	.LASF113:
 3632 0000 666C6173 		.ascii	"flashCtlMainWs1Freq\000"
 3632      6843746C 
 3632      4D61696E 
 3632      57733146 
 3632      72657100 
 3633              	.LASF271:
 3634 0014 4D41474E 		.ascii	"MAGNETO\000"
 3634      45544F00 
 3635              	.LASF253:
 3636 001c 73746F70 		.ascii	"stopInputMode\000"
 3636      496E7075 
 3636      744D6F64 
 3636      6500
 3637              	.LASF55:
 3638 002a 4143545F 		.ascii	"ACT_DESCR_X_CTL\000"
 3638      44455343 
 3638      525F585F 
 3638      43544C00 
 3639              	.LASF295:
 3640 003a 63795F64 		.ascii	"cy_device\000"
 3640      65766963 
 3640      6500
 3641              	.LASF218:
 3642 0044 62756666 		.ascii	"bufferSize\000"
 3642      65725369 
 3642      7A6500
 3643              	.LASF265:
 3644 004f 4E4F4E45 		.ascii	"NONE\000"
 3644      00
 3645              	.LASF140:
 3646 0054 63707573 		.ascii	"cpussCm0ClockCtlOffset\000"
 3646      73436D30 
 3646      436C6F63 
 3646      6B43746C 
 3646      4F666673 
 3647              	.LASF67:
 3648 006b 5352414D 		.ascii	"SRAM_DATA1\000"
 3648      5F444154 
 3648      413100
 3649              	.LASF195:
ARM GAS  C:\Users\stijn\AppData\Local\Temp\cc6b5yFd.s 			page 96


 3650 0076 6D617374 		.ascii	"masterStatus\000"
 3650      65725374 
 3650      61747573 
 3650      00
 3651              	.LASF286:
 3652 0083 74656D70 		.ascii	"temperature\000"
 3652      65726174 
 3652      75726500 
 3653              	.LASF223:
 3654 008f 74785374 		.ascii	"txStatus\000"
 3654      61747573 
 3654      00
 3655              	.LASF72:
 3656 0098 70657269 		.ascii	"periBase\000"
 3656      42617365 
 3656      00
 3657              	.LASF293:
 3658 00a1 73656E64 		.ascii	"sending\000"
 3658      696E6700 
 3659              	.LASF71:
 3660 00a9 666C6173 		.ascii	"flashcBase\000"
 3660      68634261 
 3660      736500
 3661              	.LASF217:
 3662 00b4 62756666 		.ascii	"buffer\000"
 3662      657200
 3663              	.LASF118:
 3664 00bb 64774368 		.ascii	"dwChSize\000"
 3664      53697A65 
 3664      00
 3665              	.LASF52:
 3666 00c4 4143545F 		.ascii	"ACT_DESCR_SRC\000"
 3666      44455343 
 3666      525F5352 
 3666      4300
 3667              	.LASF13:
 3668 00d2 756E7369 		.ascii	"unsigned int\000"
 3668      676E6564 
 3668      20696E74 
 3668      00
 3669              	.LASF190:
 3670 00df 63795F63 		.ascii	"cy_cb_scb_i2c_handle_events_t\000"
 3670      625F7363 
 3670      625F6932 
 3670      635F6861 
 3670      6E646C65 
 3671              	.LASF200:
 3672 00fd 6D617374 		.ascii	"masterBufferIdx\000"
 3672      65724275 
 3672      66666572 
 3672      49647800 
 3673              	.LASF18:
 3674 010d 75696E74 		.ascii	"uint32_t\000"
 3674      33325F74 
 3674      00
 3675              	.LASF100:
 3676 0116 736D6966 		.ascii	"smifDeviceNr\000"
ARM GAS  C:\Users\stijn\AppData\Local\Temp\cc6b5yFd.s 			page 97


 3676      44657669 
 3676      63654E72 
 3676      00
 3677              	.LASF130:
 3678 0123 70657269 		.ascii	"periDivCmdPaTypeSelPos\000"
 3678      44697643 
 3678      6D645061 
 3678      54797065 
 3678      53656C50 
 3679              	.LASF312:
 3680 013a 62756666 		.ascii	"bufferAccelero\000"
 3680      65724163 
 3680      63656C65 
 3680      726F00
 3681              	.LASF7:
 3682 0149 5F5F696E 		.ascii	"__int32_t\000"
 3682      7433325F 
 3682      7400
 3683              	.LASF96:
 3684 0153 73727373 		.ascii	"srssNumClkpath\000"
 3684      4E756D43 
 3684      6C6B7061 
 3684      746800
 3685              	.LASF70:
 3686 0162 63707573 		.ascii	"cpussBase\000"
 3686      73426173 
 3686      6500
 3687              	.LASF258:
 3688 016c 6368616E 		.ascii	"channelBase\000"
 3688      6E656C42 
 3688      61736500 
 3689              	.LASF208:
 3690 0178 736C6176 		.ascii	"slaveRxBuffer\000"
 3690      65527842 
 3690      75666665 
 3690      7200
 3691              	.LASF87:
 3692 0186 70657269 		.ascii	"periVersion\000"
 3692      56657273 
 3692      696F6E00 
 3693              	.LASF260:
 3694 0192 6877436F 		.ascii	"hwConfigStc\000"
 3694      6E666967 
 3694      53746300 
 3695              	.LASF212:
 3696 019e 63624164 		.ascii	"cbAddr\000"
 3696      647200
 3697              	.LASF46:
 3698 01a5 50454E44 		.ascii	"PENDING\000"
 3698      494E4700 
 3699              	.LASF254:
 3700 01ad 73746F70 		.ascii	"stopInput\000"
 3700      496E7075 
 3700      7400
 3701              	.LASF301:
 3702 01b7 54315F63 		.ascii	"T1_config\000"
 3702      6F6E6669 
ARM GAS  C:\Users\stijn\AppData\Local\Temp\cc6b5yFd.s 			page 98


 3702      6700
 3703              	.LASF164:
 3704 01c1 63795F73 		.ascii	"cy_stc_dma_descriptor_t\000"
 3704      74635F64 
 3704      6D615F64 
 3704      65736372 
 3704      6970746F 
 3705              	.LASF189:
 3706 01d9 63795F65 		.ascii	"cy_en_scb_i2c_command_t\000"
 3706      6E5F7363 
 3706      625F6932 
 3706      635F636F 
 3706      6D6D616E 
 3707              	.LASF126:
 3708 01f1 70657269 		.ascii	"periTrGrSize\000"
 3708      54724772 
 3708      53697A65 
 3708      00
 3709              	.LASF203:
 3710 01fe 736C6176 		.ascii	"slaveRdBufEmpty\000"
 3710      65526442 
 3710      7566456D 
 3710      70747900 
 3711              	.LASF129:
 3712 020e 70657269 		.ascii	"periDivCmdPaDivSelPos\000"
 3712      44697643 
 3712      6D645061 
 3712      44697653 
 3712      656C506F 
 3713              	.LASF41:
 3714 0224 494E5452 		.ascii	"INTR_SET\000"
 3714      5F534554 
 3714      00
 3715              	.LASF106:
 3716 022d 63727970 		.ascii	"cryptoMemSize\000"
 3716      746F4D65 
 3716      6D53697A 
 3716      6500
 3717              	.LASF180:
 3718 023b 73617449 		.ascii	"satIntrMask\000"
 3718      6E74724D 
 3718      61736B00 
 3719              	.LASF152:
 3720 0247 63707573 		.ascii	"cpussRam1Ctl0\000"
 3720      7352616D 
 3720      3143746C 
 3720      3000
 3721              	.LASF154:
 3722 0255 69706353 		.ascii	"ipcStructSize\000"
 3722      74727563 
 3722      7453697A 
 3722      6500
 3723              	.LASF188:
 3724 0263 43595F53 		.ascii	"CY_SCB_I2C_NAK\000"
 3724      43425F49 
 3724      32435F4E 
 3724      414B00
ARM GAS  C:\Users\stijn\AppData\Local\Temp\cc6b5yFd.s 			page 99


 3725              	.LASF94:
 3726 0272 63707573 		.ascii	"cpussFmIrq\000"
 3726      73466D49 
 3726      727100
 3727              	.LASF316:
 3728 027d 53693730 		.ascii	"Si7021.c\000"
 3728      32312E63 
 3728      00
 3729              	.LASF191:
 3730 0286 63795F63 		.ascii	"cy_cb_scb_i2c_handle_addr_t\000"
 3730      625F7363 
 3730      625F6932 
 3730      635F6861 
 3730      6E646C65 
 3731              	.LASF243:
 3732 02a2 636F6D70 		.ascii	"compare0\000"
 3732      61726530 
 3732      00
 3733              	.LASF244:
 3734 02ab 636F6D70 		.ascii	"compare1\000"
 3734      61726531 
 3734      00
 3735              	.LASF88:
 3736 02b4 70726F74 		.ascii	"protVersion\000"
 3736      56657273 
 3736      696F6E00 
 3737              	.LASF214:
 3738 02c0 63795F73 		.ascii	"cy_stc_scb_i2c_context\000"
 3738      74635F73 
 3738      63625F69 
 3738      32635F63 
 3738      6F6E7465 
 3739              	.LASF166:
 3740 02d7 43595F53 		.ascii	"CY_SAR_RANGE_COND_BELOW\000"
 3740      41525F52 
 3740      414E4745 
 3740      5F434F4E 
 3740      445F4245 
 3741              	.LASF47:
 3742 02ef 52455345 		.ascii	"RESERVED\000"
 3742      52564544 
 3742      00
 3743              	.LASF128:
 3744 02f8 70657269 		.ascii	"periDivCmdTypeSelPos\000"
 3744      44697643 
 3744      6D645479 
 3744      70655365 
 3744      6C506F73 
 3745              	.LASF145:
 3746 030d 63707573 		.ascii	"cpussTrimRamCtlOffset\000"
 3746      73547269 
 3746      6D52616D 
 3746      43746C4F 
 3746      66667365 
 3747              	.LASF313:
 3748 0323 62756666 		.ascii	"bufferTemp\000"
 3748      65725465 
ARM GAS  C:\Users\stijn\AppData\Local\Temp\cc6b5yFd.s 			page 100


 3748      6D7000
 3749              	.LASF291:
 3750 032e 64617461 		.ascii	"dataReady\000"
 3750      52656164 
 3750      7900
 3751              	.LASF204:
 3752 0338 736C6176 		.ascii	"slaveTxBuffer\000"
 3752      65547842 
 3752      75666665 
 3752      7200
 3753              	.LASF206:
 3754 0346 736C6176 		.ascii	"slaveTxBufferIdx\000"
 3754      65547842 
 3754      75666665 
 3754      72496478 
 3754      00
 3755              	.LASF66:
 3756 0357 5352414D 		.ascii	"SRAM_DATA0\000"
 3756      5F444154 
 3756      413000
 3757              	.LASF283:
 3758 0362 72656164 		.ascii	"readRevision\000"
 3758      52657669 
 3758      73696F6E 
 3758      00
 3759              	.LASF59:
 3760 036f 4143545F 		.ascii	"ACT_SRC\000"
 3760      53524300 
 3761              	.LASF53:
 3762 0377 4143545F 		.ascii	"ACT_DESCR_DST\000"
 3762      44455343 
 3762      525F4453 
 3762      5400
 3763              	.LASF226:
 3764 0385 72785269 		.ascii	"rxRingBufSize\000"
 3764      6E674275 
 3764      6653697A 
 3764      6500
 3765              	.LASF138:
 3766 0393 6770696F 		.ascii	"gpioPrtCfgOutOffset\000"
 3766      50727443 
 3766      66674F75 
 3766      744F6666 
 3766      73657400 
 3767              	.LASF40:
 3768 03a7 494E5452 		.ascii	"INTR\000"
 3768      00
 3769              	.LASF159:
 3770 03ac 666C6F61 		.ascii	"float\000"
 3770      7400
 3771              	.LASF81:
 3772 03b2 63727970 		.ascii	"cryptoVersion\000"
 3772      746F5665 
 3772      7273696F 
 3772      6E00
 3773              	.LASF236:
 3774 03c0 63795F73 		.ascii	"cy_stc_scb_uart_context_t\000"
ARM GAS  C:\Users\stijn\AppData\Local\Temp\cc6b5yFd.s 			page 101


 3774      74635F73 
 3774      63625F75 
 3774      6172745F 
 3774      636F6E74 
 3775              	.LASF102:
 3776 03da 65704D6F 		.ascii	"epMonitorNr\000"
 3776      6E69746F 
 3776      724E7200 
 3777              	.LASF272:
 3778 03e6 62617365 		.ascii	"base\000"
 3778      00
 3779              	.LASF259:
 3780 03eb 6E756D43 		.ascii	"numChannels\000"
 3780      68616E6E 
 3780      656C7300 
 3781              	.LASF222:
 3782 03f7 63795F73 		.ascii	"cy_stc_scb_uart_context\000"
 3782      74635F73 
 3782      63625F75 
 3782      6172745F 
 3782      636F6E74 
 3783              	.LASF250:
 3784 040f 72656C6F 		.ascii	"reloadInput\000"
 3784      6164496E 
 3784      70757400 
 3785              	.LASF15:
 3786 041b 696E7431 		.ascii	"int16_t\000"
 3786      365F7400 
 3787              	.LASF137:
 3788 0423 6770696F 		.ascii	"gpioPrtCfgInOffset\000"
 3788      50727443 
 3788      6667496E 
 3788      4F666673 
 3788      657400
 3789              	.LASF290:
 3790 0436 72657375 		.ascii	"result\000"
 3790      6C7400
 3791              	.LASF12:
 3792 043d 6C6F6E67 		.ascii	"long long unsigned int\000"
 3792      206C6F6E 
 3792      6720756E 
 3792      7369676E 
 3792      65642069 
 3793              	.LASF134:
 3794 0454 70657269 		.ascii	"periDiv24_5CtlOffset\000"
 3794      44697632 
 3794      345F3543 
 3794      746C4F66 
 3794      66736574 
 3795              	.LASF139:
 3796 0469 6770696F 		.ascii	"gpioPrtCfgSioOffset\000"
 3796      50727443 
 3796      66675369 
 3796      6F4F6666 
 3796      73657400 
 3797              	.LASF281:
 3798 047d 72656164 		.ascii	"readHumidity\000"
ARM GAS  C:\Users\stijn\AppData\Local\Temp\cc6b5yFd.s 			page 102


 3798      48756D69 
 3798      64697479 
 3798      00
 3799              	.LASF284:
 3800 048a 6D617374 		.ascii	"masterTransfer\000"
 3800      65725472 
 3800      616E7366 
 3800      657200
 3801              	.LASF277:
 3802 0499 6D617374 		.ascii	"masterTransferCfg\000"
 3802      65725472 
 3802      616E7366 
 3802      65724366 
 3802      6700
 3803              	.LASF175:
 3804 04ab 72616E67 		.ascii	"rangeThres\000"
 3804      65546872 
 3804      657300
 3805              	.LASF73:
 3806 04b6 75646242 		.ascii	"udbBase\000"
 3806      61736500 
 3807              	.LASF205:
 3808 04be 736C6176 		.ascii	"slaveTxBufferSize\000"
 3808      65547842 
 3808      75666665 
 3808      7253697A 
 3808      6500
 3809              	.LASF167:
 3810 04d0 43595F53 		.ascii	"CY_SAR_RANGE_COND_INSIDE\000"
 3810      41525F52 
 3810      414E4745 
 3810      5F434F4E 
 3810      445F494E 
 3811              	.LASF300:
 3812 04e9 41444353 		.ascii	"ADCSOCCounter_config\000"
 3812      4F43436F 
 3812      756E7465 
 3812      725F636F 
 3812      6E666967 
 3813              	.LASF186:
 3814 04fe 63795F73 		.ascii	"cy_stc_sar_config_t\000"
 3814      74635F73 
 3814      61725F63 
 3814      6F6E6669 
 3814      675F7400 
 3815              	.LASF38:
 3816 0512 43485F49 		.ascii	"CH_IDX\000"
 3816      445800
 3817              	.LASF171:
 3818 0519 6374726C 		.ascii	"ctrl\000"
 3818      00
 3819              	.LASF251:
 3820 051e 73746172 		.ascii	"startInputMode\000"
 3820      74496E70 
 3820      75744D6F 
 3820      646500
 3821              	.LASF247:
ARM GAS  C:\Users\stijn\AppData\Local\Temp\cc6b5yFd.s 			page 103


 3822 052d 63617074 		.ascii	"captureInputMode\000"
 3822      75726549 
 3822      6E707574 
 3822      4D6F6465 
 3822      00
 3823              	.LASF44:
 3824 053e 44575F43 		.ascii	"DW_CH_STRUCT_V1_Type\000"
 3824      485F5354 
 3824      52554354 
 3824      5F56315F 
 3824      54797065 
 3825              	.LASF224:
 3826 0553 72785374 		.ascii	"rxStatus\000"
 3826      61747573 
 3826      00
 3827              	.LASF229:
 3828 055c 72784275 		.ascii	"rxBuf\000"
 3828      6600
 3829              	.LASF306:
 3830 0562 62756666 		.ascii	"bufferADC0\000"
 3830      65724144 
 3830      433000
 3831              	.LASF307:
 3832 056d 62756666 		.ascii	"bufferADC1\000"
 3832      65724144 
 3832      433100
 3833              	.LASF115:
 3834 0578 666C6173 		.ascii	"flashCtlMainWs3Freq\000"
 3834      6843746C 
 3834      4D61696E 
 3834      57733346 
 3834      72657100 
 3835              	.LASF309:
 3836 058c 62756666 		.ascii	"bufferADC3\000"
 3836      65724144 
 3836      433300
 3837              	.LASF97:
 3838 0597 73727373 		.ascii	"srssNumPll\000"
 3838      4E756D50 
 3838      6C6C00
 3839              	.LASF68:
 3840 05a2 54525F43 		.ascii	"TR_CMD\000"
 3840      4D4400
 3841              	.LASF63:
 3842 05a9 44575F56 		.ascii	"DW_V1_Type\000"
 3842      315F5479 
 3842      706500
 3843              	.LASF275:
 3844 05b4 43795F44 		.ascii	"Cy_DMA_Channel_SetDescriptor\000"
 3844      4D415F43 
 3844      68616E6E 
 3844      656C5F53 
 3844      65744465 
 3845              	.LASF108:
 3846 05d1 666C6173 		.ascii	"flashPipeRequired\000"
 3846      68506970 
 3846      65526571 
ARM GAS  C:\Users\stijn\AppData\Local\Temp\cc6b5yFd.s 			page 104


 3846      75697265 
 3846      6400
 3847              	.LASF211:
 3848 05e3 63624576 		.ascii	"cbEvents\000"
 3848      656E7473 
 3848      00
 3849              	.LASF60:
 3850 05ec 4143545F 		.ascii	"ACT_DST\000"
 3850      44535400 
 3851              	.LASF160:
 3852 05f4 646F7562 		.ascii	"double\000"
 3852      6C6500
 3853              	.LASF165:
 3854 05fb 5F426F6F 		.ascii	"_Bool\000"
 3854      6C00
 3855              	.LASF112:
 3856 0601 666C6173 		.ascii	"flashCtlMainWs0Freq\000"
 3856      6843746C 
 3856      4D61696E 
 3856      57733046 
 3856      72657100 
 3857              	.LASF192:
 3858 0615 75736552 		.ascii	"useRxFifo\000"
 3858      78466966 
 3858      6F00
 3859              	.LASF57:
 3860 061f 4143545F 		.ascii	"ACT_DESCR_NEXT_PTR\000"
 3860      44455343 
 3860      525F4E45 
 3860      58545F50 
 3860      545200
 3861              	.LASF76:
 3862 0632 6770696F 		.ascii	"gpioBase\000"
 3862      42617365 
 3862      00
 3863              	.LASF318:
 3864 063b 73656E73 		.ascii	"sensors\000"
 3864      6F727300 
 3865              	.LASF274:
 3866 0643 64657363 		.ascii	"descriptor\000"
 3866      72697074 
 3866      6F7200
 3867              	.LASF82:
 3868 064e 64775665 		.ascii	"dwVersion\000"
 3868      7273696F 
 3868      6E00
 3869              	.LASF147:
 3870 0658 63707573 		.ascii	"cpussSysTickCtlOffset\000"
 3870      73537973 
 3870      5469636B 
 3870      43746C4F 
 3870      66667365 
 3871              	.LASF103:
 3872 066e 75646250 		.ascii	"udbPresent\000"
 3872      72657365 
 3872      6E7400
 3873              	.LASF121:
ARM GAS  C:\Users\stijn\AppData\Local\Temp\cc6b5yFd.s 			page 105


 3874 0679 64775374 		.ascii	"dwStatusChIdxPos\000"
 3874      61747573 
 3874      43684964 
 3874      78506F73 
 3874      00
 3875              	.LASF5:
 3876 068a 5F5F7569 		.ascii	"__uint16_t\000"
 3876      6E743136 
 3876      5F7400
 3877              	.LASF42:
 3878 0695 494E5452 		.ascii	"INTR_MASK\000"
 3878      5F4D4153 
 3878      4B00
 3879              	.LASF185:
 3880 069f 76726566 		.ascii	"vrefMvValue\000"
 3880      4D765661 
 3880      6C756500 
 3881              	.LASF292:
 3882 06ab 73656E73 		.ascii	"sensor\000"
 3882      6F7200
 3883              	.LASF310:
 3884 06b2 77726974 		.ascii	"writebuffer\000"
 3884      65627566 
 3884      66657200 
 3885              	.LASF201:
 3886 06be 6D617374 		.ascii	"masterNumBytes\000"
 3886      65724E75 
 3886      6D427974 
 3886      657300
 3887              	.LASF92:
 3888 06cd 63707573 		.ascii	"cpussFlashPaSize\000"
 3888      73466C61 
 3888      73685061 
 3888      53697A65 
 3888      00
 3889              	.LASF248:
 3890 06de 63617074 		.ascii	"captureInput\000"
 3890      75726549 
 3890      6E707574 
 3890      00
 3891              	.LASF163:
 3892 06eb 6E657874 		.ascii	"nextPtr\000"
 3892      50747200 
 3893              	.LASF168:
 3894 06f3 43595F53 		.ascii	"CY_SAR_RANGE_COND_ABOVE\000"
 3894      41525F52 
 3894      414E4745 
 3894      5F434F4E 
 3894      445F4142 
 3895              	.LASF158:
 3896 070b 63686172 		.ascii	"char\000"
 3896      00
 3897              	.LASF177:
 3898 0710 6368616E 		.ascii	"chanEn\000"
 3898      456E00
 3899              	.LASF299:
 3900 0717 6D493243 		.ascii	"mI2C_context\000"
ARM GAS  C:\Users\stijn\AppData\Local\Temp\cc6b5yFd.s 			page 106


 3900      5F636F6E 
 3900      74657874 
 3900      00
 3901              	.LASF228:
 3902 0724 72785269 		.ascii	"rxRingBufTail\000"
 3902      6E674275 
 3902      66546169 
 3902      6C00
 3903              	.LASF279:
 3904 0732 696E6974 		.ascii	"initSI7021\000"
 3904      53493730 
 3904      323100
 3905              	.LASF104:
 3906 073d 73797350 		.ascii	"sysPmSimoPresent\000"
 3906      6D53696D 
 3906      6F507265 
 3906      73656E74 
 3906      00
 3907              	.LASF199:
 3908 074e 6D617374 		.ascii	"masterBufferSize\000"
 3908      65724275 
 3908      66666572 
 3908      53697A65 
 3908      00
 3909              	.LASF239:
 3910 075f 636C6F63 		.ascii	"clockPrescaler\000"
 3910      6B507265 
 3910      7363616C 
 3910      657200
 3911              	.LASF231:
 3912 076e 72784275 		.ascii	"rxBufIdx\000"
 3912      66496478 
 3912      00
 3913              	.LASF311:
 3914 0777 72656164 		.ascii	"readBuffer\000"
 3914      42756666 
 3914      657200
 3915              	.LASF235:
 3916 0782 696E6974 		.ascii	"initKey\000"
 3916      4B657900 
 3917              	.LASF122:
 3918 078a 64775374 		.ascii	"dwStatusChIdxMsk\000"
 3918      61747573 
 3918      43684964 
 3918      784D736B 
 3918      00
 3919              	.LASF14:
 3920 079b 75696E74 		.ascii	"uint8_t\000"
 3920      385F7400 
 3921              	.LASF278:
 3922 07a3 73746174 		.ascii	"status\000"
 3922      757300
 3923              	.LASF282:
 3924 07aa 72656164 		.ascii	"readSerial\000"
 3924      53657269 
 3924      616C00
 3925              	.LASF207:
ARM GAS  C:\Users\stijn\AppData\Local\Temp\cc6b5yFd.s 			page 107


 3926 07b5 736C6176 		.ascii	"slaveTxBufferCnt\000"
 3926      65547842 
 3926      75666665 
 3926      72436E74 
 3926      00
 3927              	.LASF77:
 3928 07c6 70617373 		.ascii	"passBase\000"
 3928      42617365 
 3928      00
 3929              	.LASF127:
 3930 07cf 70657269 		.ascii	"periDivCmdDivSelMsk\000"
 3930      44697643 
 3930      6D644469 
 3930      7653656C 
 3930      4D736B00 
 3931              	.LASF93:
 3932 07e3 63707573 		.ascii	"cpussIpc0Irq\000"
 3932      73497063 
 3932      30497271 
 3932      00
 3933              	.LASF263:
 3934 07f0 4144435F 		.ascii	"ADC_CONFIG_STRUCT\000"
 3934      434F4E46 
 3934      49475F53 
 3934      54525543 
 3934      5400
 3935              	.LASF183:
 3936 0802 6D757853 		.ascii	"muxSwitchSqCtrl\000"
 3936      77697463 
 3936      68537143 
 3936      74726C00 
 3937              	.LASF266:
 3938 0812 41444330 		.ascii	"ADC0\000"
 3938      00
 3939              	.LASF267:
 3940 0817 41444331 		.ascii	"ADC1\000"
 3940      00
 3941              	.LASF268:
 3942 081c 41444332 		.ascii	"ADC2\000"
 3942      00
 3943              	.LASF269:
 3944 0821 41444333 		.ascii	"ADC3\000"
 3944      00
 3945              	.LASF151:
 3946 0826 63707573 		.ascii	"cpussRam0Ctl0\000"
 3946      7352616D 
 3946      3043746C 
 3946      3000
 3947              	.LASF11:
 3948 0834 6C6F6E67 		.ascii	"long long int\000"
 3948      206C6F6E 
 3948      6720696E 
 3948      7400
 3949              	.LASF78:
 3950 0842 69706342 		.ascii	"ipcBase\000"
 3950      61736500 
 3951              	.LASF119:
ARM GAS  C:\Users\stijn\AppData\Local\Temp\cc6b5yFd.s 			page 108


 3952 084a 64774368 		.ascii	"dwChCtlPrioPos\000"
 3952      43746C50 
 3952      72696F50 
 3952      6F7300
 3953              	.LASF79:
 3954 0859 63727970 		.ascii	"cryptoBase\000"
 3954      746F4261 
 3954      736500
 3955              	.LASF303:
 3956 0864 54325F63 		.ascii	"T2_config\000"
 3956      6F6E6669 
 3956      6700
 3957              	.LASF169:
 3958 086e 43595F53 		.ascii	"CY_SAR_RANGE_COND_OUTSIDE\000"
 3958      41525F52 
 3958      414E4745 
 3958      5F434F4E 
 3958      445F4F55 
 3959              	.LASF30:
 3960 0888 54524947 		.ascii	"TRIG0_OUT_CPUSS_DW0_TR_IN10\000"
 3960      305F4F55 
 3960      545F4350 
 3960      5553535F 
 3960      4457305F 
 3961              	.LASF31:
 3962 08a4 54524947 		.ascii	"TRIG0_OUT_CPUSS_DW0_TR_IN11\000"
 3962      305F4F55 
 3962      545F4350 
 3962      5553535F 
 3962      4457305F 
 3963              	.LASF32:
 3964 08c0 54524947 		.ascii	"TRIG0_OUT_CPUSS_DW0_TR_IN12\000"
 3964      305F4F55 
 3964      545F4350 
 3964      5553535F 
 3964      4457305F 
 3965              	.LASF33:
 3966 08dc 54524947 		.ascii	"TRIG0_OUT_CPUSS_DW0_TR_IN13\000"
 3966      305F4F55 
 3966      545F4350 
 3966      5553535F 
 3966      4457305F 
 3967              	.LASF34:
 3968 08f8 54524947 		.ascii	"TRIG0_OUT_CPUSS_DW0_TR_IN14\000"
 3968      305F4F55 
 3968      545F4350 
 3968      5553535F 
 3968      4457305F 
 3969              	.LASF35:
 3970 0914 54524947 		.ascii	"TRIG0_OUT_CPUSS_DW0_TR_IN15\000"
 3970      305F4F55 
 3970      545F4350 
 3970      5553535F 
 3970      4457305F 
 3971              	.LASF109:
 3972 0930 666C6173 		.ascii	"flashWriteDelay\000"
 3972      68577269 
ARM GAS  C:\Users\stijn\AppData\Local\Temp\cc6b5yFd.s 			page 109


 3972      74654465 
 3972      6C617900 
 3973              	.LASF39:
 3974 0940 43485F43 		.ascii	"CH_CURR_PTR\000"
 3974      5552525F 
 3974      50545200 
 3975              	.LASF193:
 3976 094c 75736554 		.ascii	"useTxFifo\000"
 3976      78466966 
 3976      6F00
 3977              	.LASF4:
 3978 0956 5F5F696E 		.ascii	"__int16_t\000"
 3978      7431365F 
 3978      7400
 3979              	.LASF99:
 3980 0960 70657269 		.ascii	"periClockNr\000"
 3980      436C6F63 
 3980      6B4E7200 
 3981              	.LASF75:
 3982 096c 6873696F 		.ascii	"hsiomBase\000"
 3982      6D426173 
 3982      6500
 3983              	.LASF197:
 3984 0976 6D617374 		.ascii	"masterRdDir\000"
 3984      65725264 
 3984      44697200 
 3985              	.LASF19:
 3986 0982 73697A65 		.ascii	"sizetype\000"
 3986      74797065 
 3986      00
 3987              	.LASF125:
 3988 098b 70657269 		.ascii	"periTrGrOffset\000"
 3988      54724772 
 3988      4F666673 
 3988      657400
 3989              	.LASF95:
 3990 099a 63707573 		.ascii	"cpussNotConnectedIrq\000"
 3990      734E6F74 
 3990      436F6E6E 
 3990      65637465 
 3990      64497271 
 3991              	.LASF227:
 3992 09af 72785269 		.ascii	"rxRingBufHead\000"
 3992      6E674275 
 3992      66486561 
 3992      6400
 3993              	.LASF91:
 3994 09bd 63707573 		.ascii	"cpussDwChNr\000"
 3994      73447743 
 3994      684E7200 
 3995              	.LASF249:
 3996 09c9 72656C6F 		.ascii	"reloadInputMode\000"
 3996      6164496E 
 3996      7075744D 
 3996      6F646500 
 3997              	.LASF221:
 3998 09d9 63795F63 		.ascii	"cy_cb_scb_uart_handle_events_t\000"
ARM GAS  C:\Users\stijn\AppData\Local\Temp\cc6b5yFd.s 			page 110


 3998      625F7363 
 3998      625F7561 
 3998      72745F68 
 3998      616E646C 
 3999              	.LASF178:
 4000 09f8 6368616E 		.ascii	"chanConfig\000"
 4000      436F6E66 
 4000      696700
 4001              	.LASF162:
 4002 0a03 7943746C 		.ascii	"yCtl\000"
 4002      00
 4003              	.LASF233:
 4004 0a08 74784275 		.ascii	"txBufSize\000"
 4004      6653697A 
 4004      6500
 4005              	.LASF89:
 4006 0a12 63707573 		.ascii	"cpussIpcNr\000"
 4006      73497063 
 4006      4E7200
 4007              	.LASF142:
 4008 0a1d 63707573 		.ascii	"cpussCm4StatusOffset\000"
 4008      73436D34 
 4008      53746174 
 4008      75734F66 
 4008      66736574 
 4009              	.LASF101:
 4010 0a32 70617373 		.ascii	"passSarChannels\000"
 4010      53617243 
 4010      68616E6E 
 4010      656C7300 
 4011              	.LASF210:
 4012 0a42 736C6176 		.ascii	"slaveRxBufferIdx\000"
 4012      65527842 
 4012      75666665 
 4012      72496478 
 4012      00
 4013              	.LASF153:
 4014 0a53 63707573 		.ascii	"cpussRam2Ctl0\000"
 4014      7352616D 
 4014      3243746C 
 4014      3000
 4015              	.LASF196:
 4016 0a61 6D617374 		.ascii	"masterPause\000"
 4016      65725061 
 4016      75736500 
 4017              	.LASF176:
 4018 0a6d 72616E67 		.ascii	"rangeCond\000"
 4018      65436F6E 
 4018      6400
 4019              	.LASF43:
 4020 0a77 494E5452 		.ascii	"INTR_MASKED\000"
 4020      5F4D4153 
 4020      4B454400 
 4021              	.LASF232:
 4022 0a83 74784275 		.ascii	"txBuf\000"
 4022      6600
 4023              	.LASF264:
ARM GAS  C:\Users\stijn\AppData\Local\Temp\cc6b5yFd.s 			page 111


 4024 0a89 5469636B 		.ascii	"TickType_t\000"
 4024      54797065 
 4024      5F7400
 4025              	.LASF110:
 4026 0a94 666C6173 		.ascii	"flashProgramDelay\000"
 4026      6850726F 
 4026      6772616D 
 4026      44656C61 
 4026      7900
 4027              	.LASF132:
 4028 0aa6 70657269 		.ascii	"periDiv16CtlOffset\000"
 4028      44697631 
 4028      3643746C 
 4028      4F666673 
 4028      657400
 4029              	.LASF209:
 4030 0ab9 736C6176 		.ascii	"slaveRxBufferSize\000"
 4030      65527842 
 4030      75666665 
 4030      7253697A 
 4030      6500
 4031              	.LASF6:
 4032 0acb 73686F72 		.ascii	"short unsigned int\000"
 4032      7420756E 
 4032      7369676E 
 4032      65642069 
 4032      6E7400
 4033              	.LASF225:
 4034 0ade 72785269 		.ascii	"rxRingBuf\000"
 4034      6E674275 
 4034      6600
 4035              	.LASF65:
 4036 0ae8 6C6F6E67 		.ascii	"long double\000"
 4036      20646F75 
 4036      626C6500 
 4037              	.LASF16:
 4038 0af4 75696E74 		.ascii	"uint16_t\000"
 4038      31365F74 
 4038      00
 4039              	.LASF74:
 4040 0afd 70726F74 		.ascii	"protBase\000"
 4040      42617365 
 4040      00
 4041              	.LASF240:
 4042 0b06 72756E4D 		.ascii	"runMode\000"
 4042      6F646500 
 4043              	.LASF124:
 4044 0b0e 70657269 		.ascii	"periTrCmdGrSelMsk\000"
 4044      5472436D 
 4044      64477253 
 4044      656C4D73 
 4044      6B00
 4045              	.LASF198:
 4046 0b20 6D617374 		.ascii	"masterBuffer\000"
 4046      65724275 
 4046      66666572 
 4046      00
ARM GAS  C:\Users\stijn\AppData\Local\Temp\cc6b5yFd.s 			page 112


 4047              	.LASF173:
 4048 0b2d 73616D70 		.ascii	"sampleTime01\000"
 4048      6C655469 
 4048      6D653031 
 4048      00
 4049              	.LASF273:
 4050 0b3a 6368616E 		.ascii	"channel\000"
 4050      6E656C00 
 4051              	.LASF98:
 4052 0b42 73727373 		.ascii	"srssNumHfroot\000"
 4052      4E756D48 
 4052      66726F6F 
 4052      7400
 4053              	.LASF257:
 4054 0b50 63795F73 		.ascii	"cy_stc_tcpwm_counter_config_t\000"
 4054      74635F74 
 4054      6370776D 
 4054      5F636F75 
 4054      6E746572 
 4055              	.LASF120:
 4056 0b6e 64774368 		.ascii	"dwChCtlPreemptablePos\000"
 4056      43746C50 
 4056      7265656D 
 4056      70746162 
 4056      6C65506F 
 4057              	.LASF289:
 4058 0b84 78467265 		.ascii	"xFrequency\000"
 4058      7175656E 
 4058      637900
 4059              	.LASF86:
 4060 0b8f 69706356 		.ascii	"ipcVersion\000"
 4060      65727369 
 4060      6F6E00
 4061              	.LASF182:
 4062 0b9a 6D757853 		.ascii	"muxSwitch\000"
 4062      77697463 
 4062      6800
 4063              	.LASF114:
 4064 0ba4 666C6173 		.ascii	"flashCtlMainWs2Freq\000"
 4064      6843746C 
 4064      4D61696E 
 4064      57733246 
 4064      72657100 
 4065              	.LASF319:
 4066 0bb8 53693730 		.ascii	"Si7021Task\000"
 4066      32315461 
 4066      736B00
 4067              	.LASF149:
 4068 0bc3 63707573 		.ascii	"cpussCm4NmiCtlOffset\000"
 4068      73436D34 
 4068      4E6D6943 
 4068      746C4F66 
 4068      66736574 
 4069              	.LASF242:
 4070 0bd8 636F6D70 		.ascii	"compareOrCapture\000"
 4070      6172654F 
 4070      72436170 
ARM GAS  C:\Users\stijn\AppData\Local\Temp\cc6b5yFd.s 			page 113


 4070      74757265 
 4070      00
 4071              	.LASF131:
 4072 0be9 70657269 		.ascii	"periDiv8CtlOffset\000"
 4072      44697638 
 4072      43746C4F 
 4072      66667365 
 4072      7400
 4073              	.LASF54:
 4074 0bfb 52455345 		.ascii	"RESERVED2\000"
 4074      52564544 
 4074      3200
 4075              	.LASF56:
 4076 0c05 4143545F 		.ascii	"ACT_DESCR_Y_CTL\000"
 4076      44455343 
 4076      525F595F 
 4076      43544C00 
 4077              	.LASF61:
 4078 0c15 52455345 		.ascii	"RESERVED4\000"
 4078      52564544 
 4078      3400
 4079              	.LASF22:
 4080 0c1f 54524947 		.ascii	"TRIG0_OUT_CPUSS_DW0_TR_IN2\000"
 4080      305F4F55 
 4080      545F4350 
 4080      5553535F 
 4080      4457305F 
 4081              	.LASF0:
 4082 0c3a 73686F72 		.ascii	"short int\000"
 4082      7420696E 
 4082      7400
 4083              	.LASF298:
 4084 0c44 4144435F 		.ascii	"ADC_allConfigs\000"
 4084      616C6C43 
 4084      6F6E6669 
 4084      677300
 4085              	.LASF246:
 4086 0c53 696E7465 		.ascii	"interruptSources\000"
 4086      72727570 
 4086      74536F75 
 4086      72636573 
 4086      00
 4087              	.LASF245:
 4088 0c64 656E6162 		.ascii	"enableCompareSwap\000"
 4088      6C65436F 
 4088      6D706172 
 4088      65537761 
 4088      7000
 4089              	.LASF270:
 4090 0c76 41434345 		.ascii	"ACCELERO\000"
 4090      4C45524F 
 4090      00
 4091              	.LASF8:
 4092 0c7f 6C6F6E67 		.ascii	"long int\000"
 4092      20696E74 
 4092      00
 4093              	.LASF80:
ARM GAS  C:\Users\stijn\AppData\Local\Temp\cc6b5yFd.s 			page 114


 4094 0c88 63707573 		.ascii	"cpussVersion\000"
 4094      73566572 
 4094      73696F6E 
 4094      00
 4095              	.LASF294:
 4096 0c95 49544D5F 		.ascii	"ITM_RxBuffer\000"
 4096      52784275 
 4096      66666572 
 4096      00
 4097              	.LASF255:
 4098 0ca2 636F756E 		.ascii	"countInputMode\000"
 4098      74496E70 
 4098      75744D6F 
 4098      646500
 4099              	.LASF84:
 4100 0cb1 6770696F 		.ascii	"gpioVersion\000"
 4100      56657273 
 4100      696F6E00 
 4101              	.LASF187:
 4102 0cbd 43595F53 		.ascii	"CY_SCB_I2C_ACK\000"
 4102      43425F49 
 4102      32435F41 
 4102      434B00
 4103              	.LASF83:
 4104 0ccc 666C6173 		.ascii	"flashcVersion\000"
 4104      68635665 
 4104      7273696F 
 4104      6E00
 4105              	.LASF105:
 4106 0cda 70726F74 		.ascii	"protBusMasterMask\000"
 4106      4275734D 
 4106      61737465 
 4106      724D6173 
 4106      6B00
 4107              	.LASF241:
 4108 0cec 636F756E 		.ascii	"countDirection\000"
 4108      74446972 
 4108      65637469 
 4108      6F6E00
 4109              	.LASF285:
 4110 0cfb 74656D70 		.ascii	"temp\000"
 4110      00
 4111              	.LASF317:
 4112 0d00 433A5C55 		.ascii	"C:\\Users\\stijn\\Dropbox\\Work\\PhD\\Projects\\PSo"
 4112      73657273 
 4112      5C737469 
 4112      6A6E5C44 
 4112      726F7062 
 4113 0d2c 43204372 		.ascii	"C Creator\\RTOS DAQ\\IoT_Generic_DAQ.cydsn\000"
 4113      6561746F 
 4113      725C5254 
 4113      4F532044 
 4113      41515C49 
 4114              	.LASF288:
 4115 0d55 784C6173 		.ascii	"xLastWakeTime\000"
 4115      7457616B 
 4115      6554696D 
ARM GAS  C:\Users\stijn\AppData\Local\Temp\cc6b5yFd.s 			page 115


 4115      6500
 4116              	.LASF20:
 4117 0d63 54524947 		.ascii	"TRIG0_OUT_CPUSS_DW0_TR_IN0\000"
 4117      305F4F55 
 4117      545F4350 
 4117      5553535F 
 4117      4457305F 
 4118              	.LASF21:
 4119 0d7e 54524947 		.ascii	"TRIG0_OUT_CPUSS_DW0_TR_IN1\000"
 4119      305F4F55 
 4119      545F4350 
 4119      5553535F 
 4119      4457305F 
 4120              	.LASF157:
 4121 0d99 63686172 		.ascii	"char_t\000"
 4121      5F7400
 4122              	.LASF23:
 4123 0da0 54524947 		.ascii	"TRIG0_OUT_CPUSS_DW0_TR_IN3\000"
 4123      305F4F55 
 4123      545F4350 
 4123      5553535F 
 4123      4457305F 
 4124              	.LASF24:
 4125 0dbb 54524947 		.ascii	"TRIG0_OUT_CPUSS_DW0_TR_IN4\000"
 4125      305F4F55 
 4125      545F4350 
 4125      5553535F 
 4125      4457305F 
 4126              	.LASF25:
 4127 0dd6 54524947 		.ascii	"TRIG0_OUT_CPUSS_DW0_TR_IN5\000"
 4127      305F4F55 
 4127      545F4350 
 4127      5553535F 
 4127      4457305F 
 4128              	.LASF26:
 4129 0df1 54524947 		.ascii	"TRIG0_OUT_CPUSS_DW0_TR_IN6\000"
 4129      305F4F55 
 4129      545F4350 
 4129      5553535F 
 4129      4457305F 
 4130              	.LASF27:
 4131 0e0c 54524947 		.ascii	"TRIG0_OUT_CPUSS_DW0_TR_IN7\000"
 4131      305F4F55 
 4131      545F4350 
 4131      5553535F 
 4131      4457305F 
 4132              	.LASF28:
 4133 0e27 54524947 		.ascii	"TRIG0_OUT_CPUSS_DW0_TR_IN8\000"
 4133      305F4F55 
 4133      545F4350 
 4133      5553535F 
 4133      4457305F 
 4134              	.LASF29:
 4135 0e42 54524947 		.ascii	"TRIG0_OUT_CPUSS_DW0_TR_IN9\000"
 4135      305F4F55 
 4135      545F4350 
 4135      5553535F 
ARM GAS  C:\Users\stijn\AppData\Local\Temp\cc6b5yFd.s 			page 116


 4135      4457305F 
 4136              	.LASF234:
 4137 0e5d 74784C65 		.ascii	"txLeftToTransmit\000"
 4137      6674546F 
 4137      5472616E 
 4137      736D6974 
 4137      00
 4138              	.LASF48:
 4139 0e6e 53544154 		.ascii	"STATUS_INTR\000"
 4139      55535F49 
 4139      4E545200 
 4140              	.LASF144:
 4141 0e7a 63707573 		.ascii	"cpussCm4PwrCtlOffset\000"
 4141      73436D34 
 4141      50777243 
 4141      746C4F66 
 4141      66736574 
 4142              	.LASF3:
 4143 0e8f 5F5F7569 		.ascii	"__uint8_t\000"
 4143      6E74385F 
 4143      7400
 4144              	.LASF302:
 4145 0e99 54305F63 		.ascii	"T0_config\000"
 4145      6F6E6669 
 4145      6700
 4146              	.LASF261:
 4147 0ea3 6D697363 		.ascii	"miscConfig\000"
 4147      436F6E66 
 4147      696700
 4148              	.LASF49:
 4149 0eae 53544154 		.ascii	"STATUS_INTR_MASKED\000"
 4149      55535F49 
 4149      4E54525F 
 4149      4D41534B 
 4149      454400
 4150              	.LASF135:
 4151 0ec1 6770696F 		.ascii	"gpioPrtIntrCfgOffset\000"
 4151      50727449 
 4151      6E747243 
 4151      66674F66 
 4151      66736574 
 4152              	.LASF148:
 4153 0ed6 63707573 		.ascii	"cpussCm0NmiCtlOffset\000"
 4153      73436D30 
 4153      4E6D6943 
 4153      746C4F66 
 4153      66736574 
 4154              	.LASF141:
 4155 0eeb 63707573 		.ascii	"cpussCm4ClockCtlOffset\000"
 4155      73436D34 
 4155      436C6F63 
 4155      6B43746C 
 4155      4F666673 
 4156              	.LASF304:
 4157 0f02 54335F63 		.ascii	"T3_config\000"
 4157      6F6E6669 
 4157      6700
ARM GAS  C:\Users\stijn\AppData\Local\Temp\cc6b5yFd.s 			page 117


 4158              	.LASF146:
 4159 0f0c 63707573 		.ascii	"cpussTrimRomCtlOffset\000"
 4159      73547269 
 4159      6D526F6D 
 4159      43746C4F 
 4159      66667365 
 4160              	.LASF174:
 4161 0f22 73616D70 		.ascii	"sampleTime23\000"
 4161      6C655469 
 4161      6D653233 
 4161      00
 4162              	.LASF220:
 4163 0f2f 63795F73 		.ascii	"cy_stc_scb_i2c_master_xfer_config_t\000"
 4163      74635F73 
 4163      63625F69 
 4163      32635F6D 
 4163      61737465 
 4164              	.LASF85:
 4165 0f53 6873696F 		.ascii	"hsiomVersion\000"
 4165      6D566572 
 4165      73696F6E 
 4165      00
 4166              	.LASF10:
 4167 0f60 6C6F6E67 		.ascii	"long unsigned int\000"
 4167      20756E73 
 4167      69676E65 
 4167      6420696E 
 4167      7400
 4168              	.LASF150:
 4169 0f72 63707573 		.ascii	"cpussRomCtl\000"
 4169      73526F6D 
 4169      43746C00 
 4170              	.LASF17:
 4171 0f7e 696E7433 		.ascii	"int32_t\000"
 4171      325F7400 
 4172              	.LASF280:
 4173 0f86 72656164 		.ascii	"readTemp\000"
 4173      54656D70 
 4173      00
 4174              	.LASF143:
 4175 0f8f 63707573 		.ascii	"cpussCm0StatusOffset\000"
 4175      73436D30 
 4175      53746174 
 4175      75734F66 
 4175      66736574 
 4176              	.LASF172:
 4177 0fa4 73616D70 		.ascii	"sampleCtrl\000"
 4177      6C654374 
 4177      726C00
 4178              	.LASF219:
 4179 0faf 78666572 		.ascii	"xferPending\000"
 4179      50656E64 
 4179      696E6700 
 4180              	.LASF276:
 4181 0fbb 43795F44 		.ascii	"Cy_DMA_Channel_Enable\000"
 4181      4D415F43 
 4181      68616E6E 
ARM GAS  C:\Users\stijn\AppData\Local\Temp\cc6b5yFd.s 			page 118


 4181      656C5F45 
 4181      6E61626C 
 4182              	.LASF314:
 4183 0fd1 62756666 		.ascii	"bufferHumid\000"
 4183      65724875 
 4183      6D696400 
 4184              	.LASF2:
 4185 0fdd 756E7369 		.ascii	"unsigned char\000"
 4185      676E6564 
 4185      20636861 
 4185      7200
 4186              	.LASF9:
 4187 0feb 5F5F7569 		.ascii	"__uint32_t\000"
 4187      6E743332 
 4187      5F7400
 4188              	.LASF155:
 4189 0ff6 6970634C 		.ascii	"ipcLockStatusOffset\000"
 4189      6F636B53 
 4189      74617475 
 4189      734F6666 
 4189      73657400 
 4190              	.LASF256:
 4191 100a 636F756E 		.ascii	"countInput\000"
 4191      74496E70 
 4191      757400
 4192              	.LASF37:
 4193 1015 43485F53 		.ascii	"CH_STATUS\000"
 4193      54415455 
 4193      5300
 4194              	.LASF111:
 4195 101f 666C6173 		.ascii	"flashEraseDelay\000"
 4195      68457261 
 4195      73654465 
 4195      6C617900 
 4196              	.LASF51:
 4197 102f 4143545F 		.ascii	"ACT_DESCR_CTL\000"
 4197      44455343 
 4197      525F4354 
 4197      4C00
 4198              	.LASF262:
 4199 103d 636C6B44 		.ascii	"clkDivider\000"
 4199      69766964 
 4199      657200
 4200              	.LASF194:
 4201 1048 73746174 		.ascii	"state\000"
 4201      6500
 4202              	.LASF62:
 4203 104e 43485F53 		.ascii	"CH_STRUCT\000"
 4203      54525543 
 4203      5400
 4204              	.LASF297:
 4205 1058 4144435F 		.ascii	"ADC_currentConfig\000"
 4205      63757272 
 4205      656E7443 
 4205      6F6E6669 
 4205      6700
 4206              	.LASF107:
ARM GAS  C:\Users\stijn\AppData\Local\Temp\cc6b5yFd.s 			page 119


 4207 106a 666C6173 		.ascii	"flashRwwRequired\000"
 4207      68527777 
 4207      52657175 
 4207      69726564 
 4207      00
 4208              	.LASF136:
 4209 107b 6770696F 		.ascii	"gpioPrtCfgOffset\000"
 4209      50727443 
 4209      66674F66 
 4209      66736574 
 4209      00
 4210              	.LASF296:
 4211 108c 55415254 		.ascii	"UART_context\000"
 4211      5F636F6E 
 4211      74657874 
 4211      00
 4212              	.LASF1:
 4213 1099 7369676E 		.ascii	"signed char\000"
 4213      65642063 
 4213      68617200 
 4214              	.LASF238:
 4215 10a5 70657269 		.ascii	"period\000"
 4215      6F6400
 4216              	.LASF117:
 4217 10ac 64774368 		.ascii	"dwChOffset\000"
 4217      4F666673 
 4217      657400
 4218              	.LASF90:
 4219 10b7 63707573 		.ascii	"cpussIpcIrqNr\000"
 4219      73497063 
 4219      4972714E 
 4219      7200
 4220              	.LASF237:
 4221 10c5 63795F73 		.ascii	"cy_stc_tcpwm_counter_config\000"
 4221      74635F74 
 4221      6370776D 
 4221      5F636F75 
 4221      6E746572 
 4222              	.LASF64:
 4223 10e1 44575F54 		.ascii	"DW_Type\000"
 4223      79706500 
 4224              	.LASF69:
 4225 10e9 44575F43 		.ascii	"DW_CH_STRUCT_V2_Type\000"
 4225      485F5354 
 4225      52554354 
 4225      5F56325F 
 4225      54797065 
 4226              	.LASF156:
 4227 10fe 63795F73 		.ascii	"cy_stc_device_t\000"
 4227      74635F64 
 4227      65766963 
 4227      655F7400 
 4228              	.LASF36:
 4229 110e 43485F43 		.ascii	"CH_CTL\000"
 4229      544C00
 4230              	.LASF184:
 4231 1115 636F6E66 		.ascii	"configRouting\000"
ARM GAS  C:\Users\stijn\AppData\Local\Temp\cc6b5yFd.s 			page 120


 4231      6967526F 
 4231      7574696E 
 4231      6700
 4232              	.LASF305:
 4233 1123 49324344 		.ascii	"I2CDMA_Descriptor_Temp\000"
 4233      4D415F44 
 4233      65736372 
 4233      6970746F 
 4233      725F5465 
 4234              	.LASF50:
 4235 113a 52455345 		.ascii	"RESERVED1\000"
 4235      52564544 
 4235      3100
 4236              	.LASF133:
 4237 1144 70657269 		.ascii	"periDiv16_5CtlOffset\000"
 4237      44697631 
 4237      365F3543 
 4237      746C4F66 
 4237      66736574 
 4238              	.LASF45:
 4239 1159 53544154 		.ascii	"STATUS\000"
 4239      555300
 4240              	.LASF213:
 4241 1160 63795F73 		.ascii	"cy_stc_scb_i2c_context_t\000"
 4241      74635F73 
 4241      63625F69 
 4241      32635F63 
 4241      6F6E7465 
 4242              	.LASF58:
 4243 1179 52455345 		.ascii	"RESERVED3\000"
 4243      52564544 
 4243      3300
 4244              	.LASF116:
 4245 1183 666C6173 		.ascii	"flashCtlMainWs4Freq\000"
 4245      6843746C 
 4245      4D61696E 
 4245      57733446 
 4245      72657100 
 4246              	.LASF181:
 4247 1197 72616E67 		.ascii	"rangeIntrMask\000"
 4247      65496E74 
 4247      724D6173 
 4247      6B00
 4248              	.LASF170:
 4249 11a5 63795F65 		.ascii	"cy_en_sar_range_detect_condition_t\000"
 4249      6E5F7361 
 4249      725F7261 
 4249      6E67655F 
 4249      64657465 
 4250              	.LASF287:
 4251 11c8 68756D69 		.ascii	"humidity\000"
 4251      64697479 
 4251      00
 4252              	.LASF315:
 4253 11d1 474E5520 		.ascii	"GNU C11 5.4.1 20160609 (release) [ARM/embedded-5-br"
 4253      43313120 
 4253      352E342E 
ARM GAS  C:\Users\stijn\AppData\Local\Temp\cc6b5yFd.s 			page 121


 4253      31203230 
 4253      31363036 
 4254 1204 616E6368 		.ascii	"anch revision 237715] -mcpu=cortex-m4 -mfloat-abi=s"
 4254      20726576 
 4254      6973696F 
 4254      6E203233 
 4254      37373135 
 4255 1237 6F667466 		.ascii	"oftfp -mfpu=fpv4-sp-d16 -mthumb -g -O0 -ffunction-s"
 4255      70202D6D 
 4255      6670753D 
 4255      66707634 
 4255      2D73702D 
 4256 126a 65637469 		.ascii	"ections -ffat-lto-objects\000"
 4256      6F6E7320 
 4256      2D666661 
 4256      742D6C74 
 4256      6F2D6F62 
 4257              	.LASF308:
 4258 1284 62756666 		.ascii	"bufferADC2\000"
 4258      65724144 
 4258      433200
 4259              	.LASF161:
 4260 128f 7843746C 		.ascii	"xCtl\000"
 4260      00
 4261              	.LASF215:
 4262 1294 63795F73 		.ascii	"cy_stc_scb_i2c_master_xfer_config\000"
 4262      74635F73 
 4262      63625F69 
 4262      32635F6D 
 4262      61737465 
 4263              	.LASF216:
 4264 12b6 736C6176 		.ascii	"slaveAddress\000"
 4264      65416464 
 4264      72657373 
 4264      00
 4265              	.LASF179:
 4266 12c3 696E7472 		.ascii	"intrMask\000"
 4266      4D61736B 
 4266      00
 4267              	.LASF123:
 4268 12cc 70657269 		.ascii	"periTrCmdOffset\000"
 4268      5472436D 
 4268      644F6666 
 4268      73657400 
 4269              	.LASF230:
 4270 12dc 72784275 		.ascii	"rxBufSize\000"
 4270      6653697A 
 4270      6500
 4271              	.LASF202:
 4272 12e6 736C6176 		.ascii	"slaveStatus\000"
 4272      65537461 
 4272      74757300 
 4273              	.LASF252:
 4274 12f2 73746172 		.ascii	"startInput\000"
 4274      74496E70 
 4274      757400
 4275              		.ident	"GCC: (GNU Tools for ARM Embedded Processors) 5.4.1 20160609 (release) [ARM/embedded-5-bran
ARM GAS  C:\Users\stijn\AppData\Local\Temp\cc6b5yFd.s 			page 122


