ARM GAS  C:\Users\stijn\AppData\Local\Temp\ccfFLRuw.s 			page 1


   1              		.syntax unified
   2              		.cpu cortex-m4
   3              		.eabi_attribute 27, 1
   4              		.fpu fpv4-sp-d16
   5              		.eabi_attribute 20, 1
   6              		.eabi_attribute 21, 1
   7              		.eabi_attribute 23, 3
   8              		.eabi_attribute 24, 1
   9              		.eabi_attribute 25, 1
  10              		.eabi_attribute 26, 1
  11              		.eabi_attribute 30, 6
  12              		.eabi_attribute 34, 1
  13              		.eabi_attribute 18, 4
  14              		.thumb
  15              		.syntax unified
  16              		.file	"LSM303DLHC.c"
  17              		.text
  18              	.Ltext0:
  19              		.cfi_sections	.debug_frame
  20              		.comm	accelData,16,4
  21              		.comm	magData,6,4
  22              		.bss
  23              		.align	1
  24              	result:
  25 0000 0000     		.space	2
  26              	dataReady:
  27 0002 00       		.space	1
  28              		.comm	bufferADC0,4100,4
  29              		.comm	bufferADC1,4100,4
  30              		.comm	bufferADC2,4100,4
  31              		.comm	bufferADC3,4100,4
  32 0003 00       		.align	2
  33              	sensor:
  34 0004 00000000 		.space	4
  35              	sending:
  36 0008 00       		.space	1
  37              		.comm	writebuffer,2,4
  38              		.comm	readBuffer,6,4
  39              		.comm	bufferAccelero,6146,4
  40              		.comm	bufferTemp,4,4
  41              		.comm	bufferHumid,4,4
  42              		.section	.text.initAccel,"ax",%progbits
  43              		.align	2
  44              		.global	initAccel
  45              		.thumb
  46              		.thumb_func
  47              		.type	initAccel, %function
  48              	initAccel:
  49              	.LFB1097:
  50              		.file 1 "LSM303DLHC.c"
   1:LSM303DLHC.c  **** /*  ____  ____      _    __  __  ____ ___
   2:LSM303DLHC.c  ****  * |  _ \|  _ \    / \  |  \/  |/ ___/ _ \
   3:LSM303DLHC.c  ****  * | | | | |_) |  / _ \ | |\/| | |  | | | |
   4:LSM303DLHC.c  ****  * | |_| |  _ <  / ___ \| |  | | |__| |_| |
   5:LSM303DLHC.c  ****  * |____/|_| \_\/_/   \_\_|  |_|\____\___/
   6:LSM303DLHC.c  ****  *                           research group
   7:LSM303DLHC.c  ****  *                             dramco.be/
ARM GAS  C:\Users\stijn\AppData\Local\Temp\ccfFLRuw.s 			page 2


   8:LSM303DLHC.c  ****  *
   9:LSM303DLHC.c  ****  *  KU Leuven - Technology Campus Gent,
  10:LSM303DLHC.c  ****  *  Gebroeders De Smetstraat 1,
  11:LSM303DLHC.c  ****  *  B-9000 Gent, Belgium
  12:LSM303DLHC.c  ****  *
  13:LSM303DLHC.c  ****  *         File: LSM303DLHC.h
  14:LSM303DLHC.c  ****  *      Created: 2019-04-11
  15:LSM303DLHC.c  ****  *       Author: Stijn Crul
  16:LSM303DLHC.c  ****  *      Version: 0.1
  17:LSM303DLHC.c  ****  *
  18:LSM303DLHC.c  ****  *  Description: LSM303DLHC library for PSOC6
  19:LSM303DLHC.c  ****  */
  20:LSM303DLHC.c  **** 
  21:LSM303DLHC.c  **** #include "project.h"
  22:LSM303DLHC.c  **** #include "LSM303DLHC.h"
  23:LSM303DLHC.c  **** #include "i2c.h"
  24:LSM303DLHC.c  **** #include "FreeRTOS.h"
  25:LSM303DLHC.c  **** #include "task.h"
  26:LSM303DLHC.c  **** 
  27:LSM303DLHC.c  **** /* 
  28:LSM303DLHC.c  **** * Name: initAccel 
  29:LSM303DLHC.c  **** * Description: Setup up the accelerometer by writing to CTRL_REG1_A
  30:LSM303DLHC.c  **** *
  31:LSM303DLHC.c  **** * Arguments:    cy_stc_scb_i2c_master_xfer_config_t masterTransferCfg = psoc I2C settings
  32:LSM303DLHC.c  **** *               uint8_t mask = bits for the control register of the lsm303dlhc. Page 24 of datashee
  33:LSM303DLHC.c  **** * Output:       uint8_t status
  34:LSM303DLHC.c  **** */
  35:LSM303DLHC.c  **** uint8_t initAccel(cy_stc_scb_i2c_master_xfer_config_t masterTransferCfg, uint8_t mask){
  51              		.loc 1 35 0
  52              		.cfi_startproc
  53              		@ args = 4, pretend = 0, frame = 24
  54              		@ frame_needed = 1, uses_anonymous_args = 0
  55 0000 90B5     		push	{r4, r7, lr}
  56              		.cfi_def_cfa_offset 12
  57              		.cfi_offset 4, -12
  58              		.cfi_offset 7, -8
  59              		.cfi_offset 14, -4
  60 0002 8BB0     		sub	sp, sp, #44
  61              		.cfi_def_cfa_offset 56
  62 0004 04AF     		add	r7, sp, #16
  63              		.cfi_def_cfa 7, 40
  64 0006 3C46     		mov	r4, r7
  65 0008 84E80F00 		stmia	r4, {r0, r1, r2, r3}
  36:LSM303DLHC.c  ****     uint8_t status = TRANSFER_ERROR; 
  66              		.loc 1 36 0
  67 000c FF23     		movs	r3, #255
  68 000e FB75     		strb	r3, [r7, #23]
  37:LSM303DLHC.c  ****     uint8_t msg[WRITE_PACKET_SIZE] = {LSM303_REGISTER_ACCEL_CTRL_REG1_A, mask};
  69              		.loc 1 37 0
  70 0010 2023     		movs	r3, #32
  71 0012 3B75     		strb	r3, [r7, #20]
  72 0014 97F82830 		ldrb	r3, [r7, #40]
  73 0018 7B75     		strb	r3, [r7, #21]
  38:LSM303DLHC.c  ****     
  39:LSM303DLHC.c  ****     status = WriteCommandPacketToI2C(masterTransferCfg, LSM303_ADDRESS_ACCEL, msg, 2);
  74              		.loc 1 39 0
  75 001a 0223     		movs	r3, #2
ARM GAS  C:\Users\stijn\AppData\Local\Temp\ccfFLRuw.s 			page 3


  76 001c 0293     		str	r3, [sp, #8]
  77 001e 07F11403 		add	r3, r7, #20
  78 0022 0193     		str	r3, [sp, #4]
  79 0024 1923     		movs	r3, #25
  80 0026 0093     		str	r3, [sp]
  81 0028 3B46     		mov	r3, r7
  82 002a 0FCB     		ldmia	r3, {r0, r1, r2, r3}
  83 002c FFF7FEFF 		bl	WriteCommandPacketToI2C
  84 0030 0346     		mov	r3, r0
  85 0032 FB75     		strb	r3, [r7, #23]
  40:LSM303DLHC.c  ****     
  41:LSM303DLHC.c  ****     return status;
  86              		.loc 1 41 0
  87 0034 FB7D     		ldrb	r3, [r7, #23]	@ zero_extendqisi2
  42:LSM303DLHC.c  **** }
  88              		.loc 1 42 0
  89 0036 1846     		mov	r0, r3
  90 0038 1C37     		adds	r7, r7, #28
  91              		.cfi_def_cfa_offset 12
  92 003a BD46     		mov	sp, r7
  93              		.cfi_def_cfa_register 13
  94              		@ sp needed
  95 003c 90BD     		pop	{r4, r7, pc}
  96              		.cfi_endproc
  97              	.LFE1097:
  98              		.size	initAccel, .-initAccel
  99 003e 00BF     		.section	.text.readAccel,"ax",%progbits
 100              		.align	2
 101              		.global	readAccel
 102              		.thumb
 103              		.thumb_func
 104              		.type	readAccel, %function
 105              	readAccel:
 106              	.LFB1098:
  43:LSM303DLHC.c  **** 
  44:LSM303DLHC.c  **** /* 
  45:LSM303DLHC.c  **** * Function: readAccel  
  46:LSM303DLHC.c  **** * Description: Read values from accelerometer after it has been setup
  47:LSM303DLHC.c  **** *
  48:LSM303DLHC.c  **** * Arguments:  cy_stc_scb_i2c_master_xfer_config_t masterTransferCfg = psoc I2C settings
  49:LSM303DLHC.c  **** * Output:     uint8_t status
  50:LSM303DLHC.c  **** */
  51:LSM303DLHC.c  **** uint8_t readAccel(cy_stc_scb_i2c_master_xfer_config_t masterTransferCfg){
 107              		.loc 1 51 0
 108              		.cfi_startproc
 109              		@ args = 0, pretend = 0, frame = 24
 110              		@ frame_needed = 1, uses_anonymous_args = 0
 111 0000 90B5     		push	{r4, r7, lr}
 112              		.cfi_def_cfa_offset 12
 113              		.cfi_offset 4, -12
 114              		.cfi_offset 7, -8
 115              		.cfi_offset 14, -4
 116 0002 8BB0     		sub	sp, sp, #44
 117              		.cfi_def_cfa_offset 56
 118 0004 04AF     		add	r7, sp, #16
 119              		.cfi_def_cfa 7, 40
 120 0006 3C46     		mov	r4, r7
ARM GAS  C:\Users\stijn\AppData\Local\Temp\ccfFLRuw.s 			page 4


 121 0008 84E80F00 		stmia	r4, {r0, r1, r2, r3}
  52:LSM303DLHC.c  ****     uint8_t status = TRANSFER_ERROR;
 122              		.loc 1 52 0
 123 000c FF23     		movs	r3, #255
 124 000e FB75     		strb	r3, [r7, #23]
  53:LSM303DLHC.c  ****     uint8_t msg[WRITE_PACKET_SIZE];
  54:LSM303DLHC.c  ****     msg[0] = (LSM303_REGISTER_ACCEL_OUT_X_L_A | (1 << 7));
 125              		.loc 1 54 0
 126 0010 A823     		movs	r3, #168
 127 0012 3B75     		strb	r3, [r7, #20]
  55:LSM303DLHC.c  ****     
  56:LSM303DLHC.c  ****     if(TRANSFER_CMPLT == WriteCommandPacketToI2C(masterTransferCfg, LSM303_ADDRESS_ACCEL, msg, 1)){
 128              		.loc 1 56 0
 129 0014 0123     		movs	r3, #1
 130 0016 0293     		str	r3, [sp, #8]
 131 0018 07F11403 		add	r3, r7, #20
 132 001c 0193     		str	r3, [sp, #4]
 133 001e 1923     		movs	r3, #25
 134 0020 0093     		str	r3, [sp]
 135 0022 3B46     		mov	r3, r7
 136 0024 0FCB     		ldmia	r3, {r0, r1, r2, r3}
 137 0026 FFF7FEFF 		bl	WriteCommandPacketToI2C
 138 002a 0346     		mov	r3, r0
 139 002c 002B     		cmp	r3, #0
 140 002e 09D1     		bne	.L4
  57:LSM303DLHC.c  ****         status = ReadStatusPacketFromI2C(masterTransferCfg, LSM303_ADDRESS_ACCEL, 6);
 141              		.loc 1 57 0
 142 0030 0623     		movs	r3, #6
 143 0032 0193     		str	r3, [sp, #4]
 144 0034 1923     		movs	r3, #25
 145 0036 0093     		str	r3, [sp]
 146 0038 3B46     		mov	r3, r7
 147 003a 0FCB     		ldmia	r3, {r0, r1, r2, r3}
 148 003c FFF7FEFF 		bl	ReadStatusPacketFromI2C
 149 0040 0346     		mov	r3, r0
 150 0042 FB75     		strb	r3, [r7, #23]
 151              	.L4:
  58:LSM303DLHC.c  ****         // todo: Do something with read data
  59:LSM303DLHC.c  ****     }
  60:LSM303DLHC.c  ****     
  61:LSM303DLHC.c  ****     return status;
 152              		.loc 1 61 0
 153 0044 FB7D     		ldrb	r3, [r7, #23]	@ zero_extendqisi2
  62:LSM303DLHC.c  **** }
 154              		.loc 1 62 0
 155 0046 1846     		mov	r0, r3
 156 0048 1C37     		adds	r7, r7, #28
 157              		.cfi_def_cfa_offset 12
 158 004a BD46     		mov	sp, r7
 159              		.cfi_def_cfa_register 13
 160              		@ sp needed
 161 004c 90BD     		pop	{r4, r7, pc}
 162              		.cfi_endproc
 163              	.LFE1098:
 164              		.size	readAccel, .-readAccel
 165 004e 00BF     		.section	.text.acceleroTask,"ax",%progbits
 166              		.align	2
ARM GAS  C:\Users\stijn\AppData\Local\Temp\ccfFLRuw.s 			page 5


 167              		.global	acceleroTask
 168              		.thumb
 169              		.thumb_func
 170              		.type	acceleroTask, %function
 171              	acceleroTask:
 172              	.LFB1099:
  63:LSM303DLHC.c  **** 
  64:LSM303DLHC.c  **** /* 
  65:LSM303DLHC.c  **** * Function: acceleroTask  
  66:LSM303DLHC.c  **** * Description: start up a task to read out the accelerometer at a set interval
  67:LSM303DLHC.c  **** *
  68:LSM303DLHC.c  **** * Arguments:  void *masterTransfer
  69:LSM303DLHC.c  **** * Output:     none
  70:LSM303DLHC.c  **** */
  71:LSM303DLHC.c  **** void acceleroTask(void *masterTransfer){
 173              		.loc 1 71 0
 174              		.cfi_startproc
 175              		@ args = 0, pretend = 0, frame = 32
 176              		@ frame_needed = 1, uses_anonymous_args = 0
 177 0000 90B5     		push	{r4, r7, lr}
 178              		.cfi_def_cfa_offset 12
 179              		.cfi_offset 4, -12
 180              		.cfi_offset 7, -8
 181              		.cfi_offset 14, -4
 182 0002 8BB0     		sub	sp, sp, #44
 183              		.cfi_def_cfa_offset 56
 184 0004 02AF     		add	r7, sp, #8
 185              		.cfi_def_cfa 7, 48
 186 0006 7860     		str	r0, [r7, #4]
  72:LSM303DLHC.c  ****     
  73:LSM303DLHC.c  ****     cy_stc_scb_i2c_master_xfer_config_t masterTransferCfg;
  74:LSM303DLHC.c  ****     
  75:LSM303DLHC.c  ****     masterTransferCfg = *(cy_stc_scb_i2c_master_xfer_config_t *) masterTransfer;
 187              		.loc 1 75 0
 188 0008 7B68     		ldr	r3, [r7, #4]
 189 000a 07F10C04 		add	r4, r7, #12
 190 000e 0FCB     		ldmia	r3, {r0, r1, r2, r3}
 191 0010 84E80F00 		stmia	r4, {r0, r1, r2, r3}
  76:LSM303DLHC.c  ****     
  77:LSM303DLHC.c  ****     TickType_t xLastWakeTime;
  78:LSM303DLHC.c  ****     const TickType_t xFrequency = 1000;
 192              		.loc 1 78 0
 193 0014 4FF47A73 		mov	r3, #1000
 194 0018 FB61     		str	r3, [r7, #28]
  79:LSM303DLHC.c  ****       
  80:LSM303DLHC.c  ****     xLastWakeTime = xTaskGetTickCount();    
 195              		.loc 1 80 0
 196 001a FFF7FEFF 		bl	xTaskGetTickCount
 197 001e 0346     		mov	r3, r0
 198 0020 BB60     		str	r3, [r7, #8]
  81:LSM303DLHC.c  ****     
  82:LSM303DLHC.c  ****     if (TRANSFER_CMPLT == initAccel(masterTransferCfg, 0x97)){
 199              		.loc 1 82 0
 200 0022 9723     		movs	r3, #151
 201 0024 0093     		str	r3, [sp]
 202 0026 07F10C03 		add	r3, r7, #12
 203 002a 0FCB     		ldmia	r3, {r0, r1, r2, r3}
ARM GAS  C:\Users\stijn\AppData\Local\Temp\ccfFLRuw.s 			page 6


 204 002c FFF7FEFF 		bl	initAccel
 205 0030 0346     		mov	r3, r0
 206 0032 002B     		cmp	r3, #0
 207 0034 16D1     		bne	.L10
 208              	.L9:
  83:LSM303DLHC.c  ****         for(;;){
  84:LSM303DLHC.c  ****             vTaskDelayUntil (&xLastWakeTime, xFrequency);
 209              		.loc 1 84 0
 210 0036 07F10803 		add	r3, r7, #8
 211 003a F969     		ldr	r1, [r7, #28]
 212 003c 1846     		mov	r0, r3
 213 003e FFF7FEFF 		bl	vTaskDelayUntil
  85:LSM303DLHC.c  ****             sensor = ACCELERO;
 214              		.loc 1 85 0
 215 0042 0A4B     		ldr	r3, .L11
 216 0044 0522     		movs	r2, #5
 217 0046 1A60     		str	r2, [r3]
  86:LSM303DLHC.c  ****             if(TRANSFER_CMPLT == readAccel(masterTransferCfg)){
 218              		.loc 1 86 0
 219 0048 07F10C03 		add	r3, r7, #12
 220 004c 0FCB     		ldmia	r3, {r0, r1, r2, r3}
 221 004e FFF7FEFF 		bl	readAccel
 222 0052 0346     		mov	r3, r0
 223 0054 002B     		cmp	r3, #0
 224 0056 EED1     		bne	.L9
  87:LSM303DLHC.c  ****                 Cy_TrigMux_SwTrigger((uint32_t)I2CDMA_DW__TR_IN, 1); //trigger the dma transfer
 225              		.loc 1 87 0
 226 0058 0121     		movs	r1, #1
 227 005a 4FF08040 		mov	r0, #1073741824
 228 005e FFF7FEFF 		bl	Cy_TrigMux_SwTrigger
  88:LSM303DLHC.c  ****                 
  89:LSM303DLHC.c  ****             }
  90:LSM303DLHC.c  ****         }
 229              		.loc 1 90 0
 230 0062 E8E7     		b	.L9
 231              	.L10:
  91:LSM303DLHC.c  ****     }
  92:LSM303DLHC.c  **** }...
 232              		.loc 1 92 0
 233 0064 00BF     		nop
 234 0066 2437     		adds	r7, r7, #36
 235              		.cfi_def_cfa_offset 12
 236 0068 BD46     		mov	sp, r7
 237              		.cfi_def_cfa_register 13
 238              		@ sp needed
 239 006a 90BD     		pop	{r4, r7, pc}
 240              	.L12:
 241              		.align	2
 242              	.L11:
 243 006c 04000000 		.word	sensor
 244              		.cfi_endproc
 245              	.LFE1099:
 246              		.size	acceleroTask, .-acceleroTask
 247              		.text
 248              	.Letext0:
 249              		.file 2 "c:\\program files (x86)\\cypress\\psoc creator\\4.2\\psoc creator\\import\\gnu\\arm\\5.4.
 250              		.file 3 "c:\\program files (x86)\\cypress\\psoc creator\\4.2\\psoc creator\\import\\gnu\\arm\\5.4.
ARM GAS  C:\Users\stijn\AppData\Local\Temp\ccfFLRuw.s 			page 7


 251              		.file 4 "Generated_Source\\PSoC6\\pdl\\drivers/peripheral/device/cy_device.h"
 252              		.file 5 "Generated_Source\\PSoC6\\pdl\\devices/psoc6/include/psoc6_01_config.h"
 253              		.file 6 "Generated_Source\\PSoC6\\pdl\\drivers/peripheral/sar/cy_sar.h"
 254              		.file 7 "Generated_Source\\PSoC6\\pdl\\drivers/peripheral/scb/cy_scb_i2c.h"
 255              		.file 8 "Generated_Source\\PSoC6\\pdl\\drivers/peripheral/scb/cy_scb_uart.h"
 256              		.file 9 "Generated_Source\\PSoC6\\pdl\\drivers/peripheral/tcpwm/cy_tcpwm_counter.h"
 257              		.file 10 "Generated_Source\\PSoC6/ADC.h"
 258              		.file 11 "LSM303DLHC.h"
 259              		.file 12 "Generated_Source\\PSoC6\\pdl\\rtos/FreeRTOS/10.0.1/Source/portable/GCC/CM4F/portmacro.h"
 260              		.file 13 "analog.h"
 261              		.file 14 "serial.h"
 262              		.file 15 "Generated_Source\\PSoC6\\pdl\\cmsis/include/core_cm4.h"
 263              		.file 16 "Generated_Source\\PSoC6/UART.h"
 264              		.file 17 "Generated_Source\\PSoC6/mI2C.h"
 265              		.file 18 "Generated_Source\\PSoC6/ADCSOCCounter.h"
 266              		.file 19 "Generated_Source\\PSoC6/T1.h"
 267              		.file 20 "Generated_Source\\PSoC6/T0.h"
 268              		.file 21 "Generated_Source\\PSoC6/T2.h"
 269              		.file 22 "Generated_Source\\PSoC6/T3.h"
 270              		.file 23 "i2c.h"